
Signal_Generator.elf:     file format elf32-littlearm

Sections:
Idx Name          Size      VMA       LMA       File off  Algn
  0 .isr_vector   0000010c  08000000  08000000  00010000  2**0
                  CONTENTS, ALLOC, LOAD, READONLY, DATA
  1 .text         00003f70  08000110  08000110  00010110  2**3
                  CONTENTS, ALLOC, LOAD, READONLY, CODE
  2 .rodata       0000007c  08004080  08004080  00014080  2**2
                  CONTENTS, ALLOC, LOAD, READONLY, DATA
  3 .ARM.extab    00000000  080040fc  080040fc  000201a0  2**0
                  CONTENTS
  4 .ARM          00000000  080040fc  080040fc  000201a0  2**0
                  CONTENTS
  5 .preinit_array 00000000  080040fc  080040fc  000201a0  2**0
                  CONTENTS, ALLOC, LOAD, DATA
  6 .init_array   00000004  080040fc  080040fc  000140fc  2**2
                  CONTENTS, ALLOC, LOAD, DATA
  7 .fini_array   00000004  08004100  08004100  00014100  2**2
                  CONTENTS, ALLOC, LOAD, DATA
  8 .data         000001a0  20000000  08004104  00020000  2**2
                  CONTENTS, ALLOC, LOAD, DATA
  9 .bss          00000cf4  200001a0  080042a4  000201a0  2**2
                  ALLOC
 10 ._user_heap_stack 00000604  20000e94  080042a4  00020e94  2**0
                  ALLOC
 11 .ARM.attributes 00000029  00000000  00000000  000201a0  2**0
                  CONTENTS, READONLY
 12 .comment      0000007b  00000000  00000000  000201c9  2**0
                  CONTENTS, READONLY
 13 .debug_frame  00000194  00000000  00000000  00020244  2**2
                  CONTENTS, READONLY, DEBUGGING

Disassembly of section .text:

08000110 <__do_global_dtors_aux>:
 8000110:	b510      	push	{r4, lr}
 8000112:	4c05      	ldr	r4, [pc, #20]	; (8000128 <__do_global_dtors_aux+0x18>)
 8000114:	7823      	ldrb	r3, [r4, #0]
 8000116:	b933      	cbnz	r3, 8000126 <__do_global_dtors_aux+0x16>
 8000118:	4b04      	ldr	r3, [pc, #16]	; (800012c <__do_global_dtors_aux+0x1c>)
 800011a:	b113      	cbz	r3, 8000122 <__do_global_dtors_aux+0x12>
 800011c:	4804      	ldr	r0, [pc, #16]	; (8000130 <__do_global_dtors_aux+0x20>)
 800011e:	f3af 8000 	nop.w
 8000122:	2301      	movs	r3, #1
 8000124:	7023      	strb	r3, [r4, #0]
 8000126:	bd10      	pop	{r4, pc}
 8000128:	200001a0 	.word	0x200001a0
 800012c:	00000000 	.word	0x00000000
 8000130:	08004068 	.word	0x08004068

08000134 <frame_dummy>:
 8000134:	b508      	push	{r3, lr}
 8000136:	4b03      	ldr	r3, [pc, #12]	; (8000144 <frame_dummy+0x10>)
 8000138:	b11b      	cbz	r3, 8000142 <frame_dummy+0xe>
 800013a:	4903      	ldr	r1, [pc, #12]	; (8000148 <frame_dummy+0x14>)
 800013c:	4803      	ldr	r0, [pc, #12]	; (800014c <frame_dummy+0x18>)
 800013e:	f3af 8000 	nop.w
 8000142:	bd08      	pop	{r3, pc}
 8000144:	00000000 	.word	0x00000000
 8000148:	200001a4 	.word	0x200001a4
 800014c:	08004068 	.word	0x08004068

08000150 <__aeabi_drsub>:
 8000150:	f081 4100 	eor.w	r1, r1, #2147483648	; 0x80000000
 8000154:	e002      	b.n	800015c <__adddf3>
 8000156:	bf00      	nop

08000158 <__aeabi_dsub>:
 8000158:	f083 4300 	eor.w	r3, r3, #2147483648	; 0x80000000

0800015c <__adddf3>:
 800015c:	b530      	push	{r4, r5, lr}
 800015e:	ea4f 0441 	mov.w	r4, r1, lsl #1
 8000162:	ea4f 0543 	mov.w	r5, r3, lsl #1
 8000166:	ea94 0f05 	teq	r4, r5
 800016a:	bf08      	it	eq
 800016c:	ea90 0f02 	teqeq	r0, r2
 8000170:	bf1f      	itttt	ne
 8000172:	ea54 0c00 	orrsne.w	ip, r4, r0
 8000176:	ea55 0c02 	orrsne.w	ip, r5, r2
 800017a:	ea7f 5c64 	mvnsne.w	ip, r4, asr #21
 800017e:	ea7f 5c65 	mvnsne.w	ip, r5, asr #21
 8000182:	f000 80e2 	beq.w	800034a <__adddf3+0x1ee>
 8000186:	ea4f 5454 	mov.w	r4, r4, lsr #21
 800018a:	ebd4 5555 	rsbs	r5, r4, r5, lsr #21
 800018e:	bfb8      	it	lt
 8000190:	426d      	neglt	r5, r5
 8000192:	dd0c      	ble.n	80001ae <__adddf3+0x52>
 8000194:	442c      	add	r4, r5
 8000196:	ea80 0202 	eor.w	r2, r0, r2
 800019a:	ea81 0303 	eor.w	r3, r1, r3
 800019e:	ea82 0000 	eor.w	r0, r2, r0
 80001a2:	ea83 0101 	eor.w	r1, r3, r1
 80001a6:	ea80 0202 	eor.w	r2, r0, r2
 80001aa:	ea81 0303 	eor.w	r3, r1, r3
 80001ae:	2d36      	cmp	r5, #54	; 0x36
 80001b0:	bf88      	it	hi
 80001b2:	bd30      	pophi	{r4, r5, pc}
 80001b4:	f011 4f00 	tst.w	r1, #2147483648	; 0x80000000
 80001b8:	ea4f 3101 	mov.w	r1, r1, lsl #12
 80001bc:	f44f 1c80 	mov.w	ip, #1048576	; 0x100000
 80001c0:	ea4c 3111 	orr.w	r1, ip, r1, lsr #12
 80001c4:	d002      	beq.n	80001cc <__adddf3+0x70>
 80001c6:	4240      	negs	r0, r0
 80001c8:	eb61 0141 	sbc.w	r1, r1, r1, lsl #1
 80001cc:	f013 4f00 	tst.w	r3, #2147483648	; 0x80000000
 80001d0:	ea4f 3303 	mov.w	r3, r3, lsl #12
 80001d4:	ea4c 3313 	orr.w	r3, ip, r3, lsr #12
 80001d8:	d002      	beq.n	80001e0 <__adddf3+0x84>
 80001da:	4252      	negs	r2, r2
 80001dc:	eb63 0343 	sbc.w	r3, r3, r3, lsl #1
 80001e0:	ea94 0f05 	teq	r4, r5
 80001e4:	f000 80a7 	beq.w	8000336 <__adddf3+0x1da>
 80001e8:	f1a4 0401 	sub.w	r4, r4, #1
 80001ec:	f1d5 0e20 	rsbs	lr, r5, #32
 80001f0:	db0d      	blt.n	800020e <__adddf3+0xb2>
 80001f2:	fa02 fc0e 	lsl.w	ip, r2, lr
 80001f6:	fa22 f205 	lsr.w	r2, r2, r5
 80001fa:	1880      	adds	r0, r0, r2
 80001fc:	f141 0100 	adc.w	r1, r1, #0
 8000200:	fa03 f20e 	lsl.w	r2, r3, lr
 8000204:	1880      	adds	r0, r0, r2
 8000206:	fa43 f305 	asr.w	r3, r3, r5
 800020a:	4159      	adcs	r1, r3
 800020c:	e00e      	b.n	800022c <__adddf3+0xd0>
 800020e:	f1a5 0520 	sub.w	r5, r5, #32
 8000212:	f10e 0e20 	add.w	lr, lr, #32
 8000216:	2a01      	cmp	r2, #1
 8000218:	fa03 fc0e 	lsl.w	ip, r3, lr
 800021c:	bf28      	it	cs
 800021e:	f04c 0c02 	orrcs.w	ip, ip, #2
 8000222:	fa43 f305 	asr.w	r3, r3, r5
 8000226:	18c0      	adds	r0, r0, r3
 8000228:	eb51 71e3 	adcs.w	r1, r1, r3, asr #31
 800022c:	f001 4500 	and.w	r5, r1, #2147483648	; 0x80000000
 8000230:	d507      	bpl.n	8000242 <__adddf3+0xe6>
 8000232:	f04f 0e00 	mov.w	lr, #0
 8000236:	f1dc 0c00 	rsbs	ip, ip, #0
 800023a:	eb7e 0000 	sbcs.w	r0, lr, r0
 800023e:	eb6e 0101 	sbc.w	r1, lr, r1
 8000242:	f5b1 1f80 	cmp.w	r1, #1048576	; 0x100000
 8000246:	d31b      	bcc.n	8000280 <__adddf3+0x124>
 8000248:	f5b1 1f00 	cmp.w	r1, #2097152	; 0x200000
 800024c:	d30c      	bcc.n	8000268 <__adddf3+0x10c>
 800024e:	0849      	lsrs	r1, r1, #1
 8000250:	ea5f 0030 	movs.w	r0, r0, rrx
 8000254:	ea4f 0c3c 	mov.w	ip, ip, rrx
 8000258:	f104 0401 	add.w	r4, r4, #1
 800025c:	ea4f 5244 	mov.w	r2, r4, lsl #21
 8000260:	f512 0f80 	cmn.w	r2, #4194304	; 0x400000
 8000264:	f080 809a 	bcs.w	800039c <__adddf3+0x240>
 8000268:	f1bc 4f00 	cmp.w	ip, #2147483648	; 0x80000000
 800026c:	bf08      	it	eq
 800026e:	ea5f 0c50 	movseq.w	ip, r0, lsr #1
 8000272:	f150 0000 	adcs.w	r0, r0, #0
 8000276:	eb41 5104 	adc.w	r1, r1, r4, lsl #20
 800027a:	ea41 0105 	orr.w	r1, r1, r5
 800027e:	bd30      	pop	{r4, r5, pc}
 8000280:	ea5f 0c4c 	movs.w	ip, ip, lsl #1
 8000284:	4140      	adcs	r0, r0
 8000286:	eb41 0101 	adc.w	r1, r1, r1
 800028a:	f411 1f80 	tst.w	r1, #1048576	; 0x100000
 800028e:	f1a4 0401 	sub.w	r4, r4, #1
 8000292:	d1e9      	bne.n	8000268 <__adddf3+0x10c>
 8000294:	f091 0f00 	teq	r1, #0
 8000298:	bf04      	itt	eq
 800029a:	4601      	moveq	r1, r0
 800029c:	2000      	moveq	r0, #0
 800029e:	fab1 f381 	clz	r3, r1
 80002a2:	bf08      	it	eq
 80002a4:	3320      	addeq	r3, #32
 80002a6:	f1a3 030b 	sub.w	r3, r3, #11
 80002aa:	f1b3 0220 	subs.w	r2, r3, #32
 80002ae:	da0c      	bge.n	80002ca <__adddf3+0x16e>
 80002b0:	320c      	adds	r2, #12
 80002b2:	dd08      	ble.n	80002c6 <__adddf3+0x16a>
 80002b4:	f102 0c14 	add.w	ip, r2, #20
 80002b8:	f1c2 020c 	rsb	r2, r2, #12
 80002bc:	fa01 f00c 	lsl.w	r0, r1, ip
 80002c0:	fa21 f102 	lsr.w	r1, r1, r2
 80002c4:	e00c      	b.n	80002e0 <__adddf3+0x184>
 80002c6:	f102 0214 	add.w	r2, r2, #20
 80002ca:	bfd8      	it	le
 80002cc:	f1c2 0c20 	rsble	ip, r2, #32
 80002d0:	fa01 f102 	lsl.w	r1, r1, r2
 80002d4:	fa20 fc0c 	lsr.w	ip, r0, ip
 80002d8:	bfdc      	itt	le
 80002da:	ea41 010c 	orrle.w	r1, r1, ip
 80002de:	4090      	lslle	r0, r2
 80002e0:	1ae4      	subs	r4, r4, r3
 80002e2:	bfa2      	ittt	ge
 80002e4:	eb01 5104 	addge.w	r1, r1, r4, lsl #20
 80002e8:	4329      	orrge	r1, r5
 80002ea:	bd30      	popge	{r4, r5, pc}
 80002ec:	ea6f 0404 	mvn.w	r4, r4
 80002f0:	3c1f      	subs	r4, #31
 80002f2:	da1c      	bge.n	800032e <__adddf3+0x1d2>
 80002f4:	340c      	adds	r4, #12
 80002f6:	dc0e      	bgt.n	8000316 <__adddf3+0x1ba>
 80002f8:	f104 0414 	add.w	r4, r4, #20
 80002fc:	f1c4 0220 	rsb	r2, r4, #32
 8000300:	fa20 f004 	lsr.w	r0, r0, r4
 8000304:	fa01 f302 	lsl.w	r3, r1, r2
 8000308:	ea40 0003 	orr.w	r0, r0, r3
 800030c:	fa21 f304 	lsr.w	r3, r1, r4
 8000310:	ea45 0103 	orr.w	r1, r5, r3
 8000314:	bd30      	pop	{r4, r5, pc}
 8000316:	f1c4 040c 	rsb	r4, r4, #12
 800031a:	f1c4 0220 	rsb	r2, r4, #32
 800031e:	fa20 f002 	lsr.w	r0, r0, r2
 8000322:	fa01 f304 	lsl.w	r3, r1, r4
 8000326:	ea40 0003 	orr.w	r0, r0, r3
 800032a:	4629      	mov	r1, r5
 800032c:	bd30      	pop	{r4, r5, pc}
 800032e:	fa21 f004 	lsr.w	r0, r1, r4
 8000332:	4629      	mov	r1, r5
 8000334:	bd30      	pop	{r4, r5, pc}
 8000336:	f094 0f00 	teq	r4, #0
 800033a:	f483 1380 	eor.w	r3, r3, #1048576	; 0x100000
 800033e:	bf06      	itte	eq
 8000340:	f481 1180 	eoreq.w	r1, r1, #1048576	; 0x100000
 8000344:	3401      	addeq	r4, #1
 8000346:	3d01      	subne	r5, #1
 8000348:	e74e      	b.n	80001e8 <__adddf3+0x8c>
 800034a:	ea7f 5c64 	mvns.w	ip, r4, asr #21
 800034e:	bf18      	it	ne
 8000350:	ea7f 5c65 	mvnsne.w	ip, r5, asr #21
 8000354:	d029      	beq.n	80003aa <__adddf3+0x24e>
 8000356:	ea94 0f05 	teq	r4, r5
 800035a:	bf08      	it	eq
 800035c:	ea90 0f02 	teqeq	r0, r2
 8000360:	d005      	beq.n	800036e <__adddf3+0x212>
 8000362:	ea54 0c00 	orrs.w	ip, r4, r0
 8000366:	bf04      	itt	eq
 8000368:	4619      	moveq	r1, r3
 800036a:	4610      	moveq	r0, r2
 800036c:	bd30      	pop	{r4, r5, pc}
 800036e:	ea91 0f03 	teq	r1, r3
 8000372:	bf1e      	ittt	ne
 8000374:	2100      	movne	r1, #0
 8000376:	2000      	movne	r0, #0
 8000378:	bd30      	popne	{r4, r5, pc}
 800037a:	ea5f 5c54 	movs.w	ip, r4, lsr #21
 800037e:	d105      	bne.n	800038c <__adddf3+0x230>
 8000380:	0040      	lsls	r0, r0, #1
 8000382:	4149      	adcs	r1, r1
 8000384:	bf28      	it	cs
 8000386:	f041 4100 	orrcs.w	r1, r1, #2147483648	; 0x80000000
 800038a:	bd30      	pop	{r4, r5, pc}
 800038c:	f514 0480 	adds.w	r4, r4, #4194304	; 0x400000
 8000390:	bf3c      	itt	cc
 8000392:	f501 1180 	addcc.w	r1, r1, #1048576	; 0x100000
 8000396:	bd30      	popcc	{r4, r5, pc}
 8000398:	f001 4500 	and.w	r5, r1, #2147483648	; 0x80000000
 800039c:	f045 41fe 	orr.w	r1, r5, #2130706432	; 0x7f000000
 80003a0:	f441 0170 	orr.w	r1, r1, #15728640	; 0xf00000
 80003a4:	f04f 0000 	mov.w	r0, #0
 80003a8:	bd30      	pop	{r4, r5, pc}
 80003aa:	ea7f 5c64 	mvns.w	ip, r4, asr #21
 80003ae:	bf1a      	itte	ne
 80003b0:	4619      	movne	r1, r3
 80003b2:	4610      	movne	r0, r2
 80003b4:	ea7f 5c65 	mvnseq.w	ip, r5, asr #21
 80003b8:	bf1c      	itt	ne
 80003ba:	460b      	movne	r3, r1
 80003bc:	4602      	movne	r2, r0
 80003be:	ea50 3401 	orrs.w	r4, r0, r1, lsl #12
 80003c2:	bf06      	itte	eq
 80003c4:	ea52 3503 	orrseq.w	r5, r2, r3, lsl #12
 80003c8:	ea91 0f03 	teqeq	r1, r3
 80003cc:	f441 2100 	orrne.w	r1, r1, #524288	; 0x80000
 80003d0:	bd30      	pop	{r4, r5, pc}
 80003d2:	bf00      	nop

080003d4 <__aeabi_ui2d>:
 80003d4:	f090 0f00 	teq	r0, #0
 80003d8:	bf04      	itt	eq
 80003da:	2100      	moveq	r1, #0
 80003dc:	4770      	bxeq	lr
 80003de:	b530      	push	{r4, r5, lr}
 80003e0:	f44f 6480 	mov.w	r4, #1024	; 0x400
 80003e4:	f104 0432 	add.w	r4, r4, #50	; 0x32
 80003e8:	f04f 0500 	mov.w	r5, #0
 80003ec:	f04f 0100 	mov.w	r1, #0
 80003f0:	e750      	b.n	8000294 <__adddf3+0x138>
 80003f2:	bf00      	nop

080003f4 <__aeabi_i2d>:
 80003f4:	f090 0f00 	teq	r0, #0
 80003f8:	bf04      	itt	eq
 80003fa:	2100      	moveq	r1, #0
 80003fc:	4770      	bxeq	lr
 80003fe:	b530      	push	{r4, r5, lr}
 8000400:	f44f 6480 	mov.w	r4, #1024	; 0x400
 8000404:	f104 0432 	add.w	r4, r4, #50	; 0x32
 8000408:	f010 4500 	ands.w	r5, r0, #2147483648	; 0x80000000
 800040c:	bf48      	it	mi
 800040e:	4240      	negmi	r0, r0
 8000410:	f04f 0100 	mov.w	r1, #0
 8000414:	e73e      	b.n	8000294 <__adddf3+0x138>
 8000416:	bf00      	nop

08000418 <__aeabi_f2d>:
 8000418:	0042      	lsls	r2, r0, #1
 800041a:	ea4f 01e2 	mov.w	r1, r2, asr #3
 800041e:	ea4f 0131 	mov.w	r1, r1, rrx
 8000422:	ea4f 7002 	mov.w	r0, r2, lsl #28
 8000426:	bf1f      	itttt	ne
 8000428:	f012 437f 	andsne.w	r3, r2, #4278190080	; 0xff000000
 800042c:	f093 4f7f 	teqne	r3, #4278190080	; 0xff000000
 8000430:	f081 5160 	eorne.w	r1, r1, #939524096	; 0x38000000
 8000434:	4770      	bxne	lr
 8000436:	f032 427f 	bics.w	r2, r2, #4278190080	; 0xff000000
 800043a:	bf08      	it	eq
 800043c:	4770      	bxeq	lr
 800043e:	f093 4f7f 	teq	r3, #4278190080	; 0xff000000
 8000442:	bf04      	itt	eq
 8000444:	f441 2100 	orreq.w	r1, r1, #524288	; 0x80000
 8000448:	4770      	bxeq	lr
 800044a:	b530      	push	{r4, r5, lr}
 800044c:	f44f 7460 	mov.w	r4, #896	; 0x380
 8000450:	f001 4500 	and.w	r5, r1, #2147483648	; 0x80000000
 8000454:	f021 4100 	bic.w	r1, r1, #2147483648	; 0x80000000
 8000458:	e71c      	b.n	8000294 <__adddf3+0x138>
 800045a:	bf00      	nop

0800045c <__aeabi_ul2d>:
 800045c:	ea50 0201 	orrs.w	r2, r0, r1
 8000460:	bf08      	it	eq
 8000462:	4770      	bxeq	lr
 8000464:	b530      	push	{r4, r5, lr}
 8000466:	f04f 0500 	mov.w	r5, #0
 800046a:	e00a      	b.n	8000482 <__aeabi_l2d+0x16>

0800046c <__aeabi_l2d>:
 800046c:	ea50 0201 	orrs.w	r2, r0, r1
 8000470:	bf08      	it	eq
 8000472:	4770      	bxeq	lr
 8000474:	b530      	push	{r4, r5, lr}
 8000476:	f011 4500 	ands.w	r5, r1, #2147483648	; 0x80000000
 800047a:	d502      	bpl.n	8000482 <__aeabi_l2d+0x16>
 800047c:	4240      	negs	r0, r0
 800047e:	eb61 0141 	sbc.w	r1, r1, r1, lsl #1
 8000482:	f44f 6480 	mov.w	r4, #1024	; 0x400
 8000486:	f104 0432 	add.w	r4, r4, #50	; 0x32
 800048a:	ea5f 5c91 	movs.w	ip, r1, lsr #22
 800048e:	f43f aed8 	beq.w	8000242 <__adddf3+0xe6>
 8000492:	f04f 0203 	mov.w	r2, #3
 8000496:	ea5f 0cdc 	movs.w	ip, ip, lsr #3
 800049a:	bf18      	it	ne
 800049c:	3203      	addne	r2, #3
 800049e:	ea5f 0cdc 	movs.w	ip, ip, lsr #3
 80004a2:	bf18      	it	ne
 80004a4:	3203      	addne	r2, #3
 80004a6:	eb02 02dc 	add.w	r2, r2, ip, lsr #3
 80004aa:	f1c2 0320 	rsb	r3, r2, #32
 80004ae:	fa00 fc03 	lsl.w	ip, r0, r3
 80004b2:	fa20 f002 	lsr.w	r0, r0, r2
 80004b6:	fa01 fe03 	lsl.w	lr, r1, r3
 80004ba:	ea40 000e 	orr.w	r0, r0, lr
 80004be:	fa21 f102 	lsr.w	r1, r1, r2
 80004c2:	4414      	add	r4, r2
 80004c4:	e6bd      	b.n	8000242 <__adddf3+0xe6>
 80004c6:	bf00      	nop

080004c8 <__aeabi_dmul>:
 80004c8:	b570      	push	{r4, r5, r6, lr}
 80004ca:	f04f 0cff 	mov.w	ip, #255	; 0xff
 80004ce:	f44c 6ce0 	orr.w	ip, ip, #1792	; 0x700
 80004d2:	ea1c 5411 	ands.w	r4, ip, r1, lsr #20
 80004d6:	bf1d      	ittte	ne
 80004d8:	ea1c 5513 	andsne.w	r5, ip, r3, lsr #20
 80004dc:	ea94 0f0c 	teqne	r4, ip
 80004e0:	ea95 0f0c 	teqne	r5, ip
 80004e4:	f000 f8de 	bleq	80006a4 <__aeabi_dmul+0x1dc>
 80004e8:	442c      	add	r4, r5
 80004ea:	ea81 0603 	eor.w	r6, r1, r3
 80004ee:	ea21 514c 	bic.w	r1, r1, ip, lsl #21
 80004f2:	ea23 534c 	bic.w	r3, r3, ip, lsl #21
 80004f6:	ea50 3501 	orrs.w	r5, r0, r1, lsl #12
 80004fa:	bf18      	it	ne
 80004fc:	ea52 3503 	orrsne.w	r5, r2, r3, lsl #12
 8000500:	f441 1180 	orr.w	r1, r1, #1048576	; 0x100000
 8000504:	f443 1380 	orr.w	r3, r3, #1048576	; 0x100000
 8000508:	d038      	beq.n	800057c <__aeabi_dmul+0xb4>
 800050a:	fba0 ce02 	umull	ip, lr, r0, r2
 800050e:	f04f 0500 	mov.w	r5, #0
 8000512:	fbe1 e502 	umlal	lr, r5, r1, r2
 8000516:	f006 4200 	and.w	r2, r6, #2147483648	; 0x80000000
 800051a:	fbe0 e503 	umlal	lr, r5, r0, r3
 800051e:	f04f 0600 	mov.w	r6, #0
 8000522:	fbe1 5603 	umlal	r5, r6, r1, r3
 8000526:	f09c 0f00 	teq	ip, #0
 800052a:	bf18      	it	ne
 800052c:	f04e 0e01 	orrne.w	lr, lr, #1
 8000530:	f1a4 04ff 	sub.w	r4, r4, #255	; 0xff
 8000534:	f5b6 7f00 	cmp.w	r6, #512	; 0x200
 8000538:	f564 7440 	sbc.w	r4, r4, #768	; 0x300
 800053c:	d204      	bcs.n	8000548 <__aeabi_dmul+0x80>
 800053e:	ea5f 0e4e 	movs.w	lr, lr, lsl #1
 8000542:	416d      	adcs	r5, r5
 8000544:	eb46 0606 	adc.w	r6, r6, r6
 8000548:	ea42 21c6 	orr.w	r1, r2, r6, lsl #11
 800054c:	ea41 5155 	orr.w	r1, r1, r5, lsr #21
 8000550:	ea4f 20c5 	mov.w	r0, r5, lsl #11
 8000554:	ea40 505e 	orr.w	r0, r0, lr, lsr #21
 8000558:	ea4f 2ece 	mov.w	lr, lr, lsl #11
 800055c:	f1b4 0cfd 	subs.w	ip, r4, #253	; 0xfd
 8000560:	bf88      	it	hi
 8000562:	f5bc 6fe0 	cmphi.w	ip, #1792	; 0x700
 8000566:	d81e      	bhi.n	80005a6 <__aeabi_dmul+0xde>
 8000568:	f1be 4f00 	cmp.w	lr, #2147483648	; 0x80000000
 800056c:	bf08      	it	eq
 800056e:	ea5f 0e50 	movseq.w	lr, r0, lsr #1
 8000572:	f150 0000 	adcs.w	r0, r0, #0
 8000576:	eb41 5104 	adc.w	r1, r1, r4, lsl #20
 800057a:	bd70      	pop	{r4, r5, r6, pc}
 800057c:	f006 4600 	and.w	r6, r6, #2147483648	; 0x80000000
 8000580:	ea46 0101 	orr.w	r1, r6, r1
 8000584:	ea40 0002 	orr.w	r0, r0, r2
 8000588:	ea81 0103 	eor.w	r1, r1, r3
 800058c:	ebb4 045c 	subs.w	r4, r4, ip, lsr #1
 8000590:	bfc2      	ittt	gt
 8000592:	ebd4 050c 	rsbsgt	r5, r4, ip
 8000596:	ea41 5104 	orrgt.w	r1, r1, r4, lsl #20
 800059a:	bd70      	popgt	{r4, r5, r6, pc}
 800059c:	f441 1180 	orr.w	r1, r1, #1048576	; 0x100000
 80005a0:	f04f 0e00 	mov.w	lr, #0
 80005a4:	3c01      	subs	r4, #1
 80005a6:	f300 80ab 	bgt.w	8000700 <__aeabi_dmul+0x238>
 80005aa:	f114 0f36 	cmn.w	r4, #54	; 0x36
 80005ae:	bfde      	ittt	le
 80005b0:	2000      	movle	r0, #0
 80005b2:	f001 4100 	andle.w	r1, r1, #2147483648	; 0x80000000
 80005b6:	bd70      	pople	{r4, r5, r6, pc}
 80005b8:	f1c4 0400 	rsb	r4, r4, #0
 80005bc:	3c20      	subs	r4, #32
 80005be:	da35      	bge.n	800062c <__aeabi_dmul+0x164>
 80005c0:	340c      	adds	r4, #12
 80005c2:	dc1b      	bgt.n	80005fc <__aeabi_dmul+0x134>
 80005c4:	f104 0414 	add.w	r4, r4, #20
 80005c8:	f1c4 0520 	rsb	r5, r4, #32
 80005cc:	fa00 f305 	lsl.w	r3, r0, r5
 80005d0:	fa20 f004 	lsr.w	r0, r0, r4
 80005d4:	fa01 f205 	lsl.w	r2, r1, r5
 80005d8:	ea40 0002 	orr.w	r0, r0, r2
 80005dc:	f001 4200 	and.w	r2, r1, #2147483648	; 0x80000000
 80005e0:	f021 4100 	bic.w	r1, r1, #2147483648	; 0x80000000
 80005e4:	eb10 70d3 	adds.w	r0, r0, r3, lsr #31
 80005e8:	fa21 f604 	lsr.w	r6, r1, r4
 80005ec:	eb42 0106 	adc.w	r1, r2, r6
 80005f0:	ea5e 0e43 	orrs.w	lr, lr, r3, lsl #1
 80005f4:	bf08      	it	eq
 80005f6:	ea20 70d3 	biceq.w	r0, r0, r3, lsr #31
 80005fa:	bd70      	pop	{r4, r5, r6, pc}
 80005fc:	f1c4 040c 	rsb	r4, r4, #12
 8000600:	f1c4 0520 	rsb	r5, r4, #32
 8000604:	fa00 f304 	lsl.w	r3, r0, r4
 8000608:	fa20 f005 	lsr.w	r0, r0, r5
 800060c:	fa01 f204 	lsl.w	r2, r1, r4
 8000610:	ea40 0002 	orr.w	r0, r0, r2
 8000614:	f001 4100 	and.w	r1, r1, #2147483648	; 0x80000000
 8000618:	eb10 70d3 	adds.w	r0, r0, r3, lsr #31
 800061c:	f141 0100 	adc.w	r1, r1, #0
 8000620:	ea5e 0e43 	orrs.w	lr, lr, r3, lsl #1
 8000624:	bf08      	it	eq
 8000626:	ea20 70d3 	biceq.w	r0, r0, r3, lsr #31
 800062a:	bd70      	pop	{r4, r5, r6, pc}
 800062c:	f1c4 0520 	rsb	r5, r4, #32
 8000630:	fa00 f205 	lsl.w	r2, r0, r5
 8000634:	ea4e 0e02 	orr.w	lr, lr, r2
 8000638:	fa20 f304 	lsr.w	r3, r0, r4
 800063c:	fa01 f205 	lsl.w	r2, r1, r5
 8000640:	ea43 0302 	orr.w	r3, r3, r2
 8000644:	fa21 f004 	lsr.w	r0, r1, r4
 8000648:	f001 4100 	and.w	r1, r1, #2147483648	; 0x80000000
 800064c:	fa21 f204 	lsr.w	r2, r1, r4
 8000650:	ea20 0002 	bic.w	r0, r0, r2
 8000654:	eb00 70d3 	add.w	r0, r0, r3, lsr #31
 8000658:	ea5e 0e43 	orrs.w	lr, lr, r3, lsl #1
 800065c:	bf08      	it	eq
 800065e:	ea20 70d3 	biceq.w	r0, r0, r3, lsr #31
 8000662:	bd70      	pop	{r4, r5, r6, pc}
 8000664:	f094 0f00 	teq	r4, #0
 8000668:	d10f      	bne.n	800068a <__aeabi_dmul+0x1c2>
 800066a:	f001 4600 	and.w	r6, r1, #2147483648	; 0x80000000
 800066e:	0040      	lsls	r0, r0, #1
 8000670:	eb41 0101 	adc.w	r1, r1, r1
 8000674:	f411 1f80 	tst.w	r1, #1048576	; 0x100000
 8000678:	bf08      	it	eq
 800067a:	3c01      	subeq	r4, #1
 800067c:	d0f7      	beq.n	800066e <__aeabi_dmul+0x1a6>
 800067e:	ea41 0106 	orr.w	r1, r1, r6
 8000682:	f095 0f00 	teq	r5, #0
 8000686:	bf18      	it	ne
 8000688:	4770      	bxne	lr
 800068a:	f003 4600 	and.w	r6, r3, #2147483648	; 0x80000000
 800068e:	0052      	lsls	r2, r2, #1
 8000690:	eb43 0303 	adc.w	r3, r3, r3
 8000694:	f413 1f80 	tst.w	r3, #1048576	; 0x100000
 8000698:	bf08      	it	eq
 800069a:	3d01      	subeq	r5, #1
 800069c:	d0f7      	beq.n	800068e <__aeabi_dmul+0x1c6>
 800069e:	ea43 0306 	orr.w	r3, r3, r6
 80006a2:	4770      	bx	lr
 80006a4:	ea94 0f0c 	teq	r4, ip
 80006a8:	ea0c 5513 	and.w	r5, ip, r3, lsr #20
 80006ac:	bf18      	it	ne
 80006ae:	ea95 0f0c 	teqne	r5, ip
 80006b2:	d00c      	beq.n	80006ce <__aeabi_dmul+0x206>
 80006b4:	ea50 0641 	orrs.w	r6, r0, r1, lsl #1
 80006b8:	bf18      	it	ne
 80006ba:	ea52 0643 	orrsne.w	r6, r2, r3, lsl #1
 80006be:	d1d1      	bne.n	8000664 <__aeabi_dmul+0x19c>
 80006c0:	ea81 0103 	eor.w	r1, r1, r3
 80006c4:	f001 4100 	and.w	r1, r1, #2147483648	; 0x80000000
 80006c8:	f04f 0000 	mov.w	r0, #0
 80006cc:	bd70      	pop	{r4, r5, r6, pc}
 80006ce:	ea50 0641 	orrs.w	r6, r0, r1, lsl #1
 80006d2:	bf06      	itte	eq
 80006d4:	4610      	moveq	r0, r2
 80006d6:	4619      	moveq	r1, r3
 80006d8:	ea52 0643 	orrsne.w	r6, r2, r3, lsl #1
 80006dc:	d019      	beq.n	8000712 <__aeabi_dmul+0x24a>
 80006de:	ea94 0f0c 	teq	r4, ip
 80006e2:	d102      	bne.n	80006ea <__aeabi_dmul+0x222>
 80006e4:	ea50 3601 	orrs.w	r6, r0, r1, lsl #12
 80006e8:	d113      	bne.n	8000712 <__aeabi_dmul+0x24a>
 80006ea:	ea95 0f0c 	teq	r5, ip
 80006ee:	d105      	bne.n	80006fc <__aeabi_dmul+0x234>
 80006f0:	ea52 3603 	orrs.w	r6, r2, r3, lsl #12
 80006f4:	bf1c      	itt	ne
 80006f6:	4610      	movne	r0, r2
 80006f8:	4619      	movne	r1, r3
 80006fa:	d10a      	bne.n	8000712 <__aeabi_dmul+0x24a>
 80006fc:	ea81 0103 	eor.w	r1, r1, r3
 8000700:	f001 4100 	and.w	r1, r1, #2147483648	; 0x80000000
 8000704:	f041 41fe 	orr.w	r1, r1, #2130706432	; 0x7f000000
 8000708:	f441 0170 	orr.w	r1, r1, #15728640	; 0xf00000
 800070c:	f04f 0000 	mov.w	r0, #0
 8000710:	bd70      	pop	{r4, r5, r6, pc}
 8000712:	f041 41fe 	orr.w	r1, r1, #2130706432	; 0x7f000000
 8000716:	f441 0178 	orr.w	r1, r1, #16252928	; 0xf80000
 800071a:	bd70      	pop	{r4, r5, r6, pc}

0800071c <__aeabi_ddiv>:
 800071c:	b570      	push	{r4, r5, r6, lr}
 800071e:	f04f 0cff 	mov.w	ip, #255	; 0xff
 8000722:	f44c 6ce0 	orr.w	ip, ip, #1792	; 0x700
 8000726:	ea1c 5411 	ands.w	r4, ip, r1, lsr #20
 800072a:	bf1d      	ittte	ne
 800072c:	ea1c 5513 	andsne.w	r5, ip, r3, lsr #20
 8000730:	ea94 0f0c 	teqne	r4, ip
 8000734:	ea95 0f0c 	teqne	r5, ip
 8000738:	f000 f8a7 	bleq	800088a <__aeabi_ddiv+0x16e>
 800073c:	eba4 0405 	sub.w	r4, r4, r5
 8000740:	ea81 0e03 	eor.w	lr, r1, r3
 8000744:	ea52 3503 	orrs.w	r5, r2, r3, lsl #12
 8000748:	ea4f 3101 	mov.w	r1, r1, lsl #12
 800074c:	f000 8088 	beq.w	8000860 <__aeabi_ddiv+0x144>
 8000750:	ea4f 3303 	mov.w	r3, r3, lsl #12
 8000754:	f04f 5580 	mov.w	r5, #268435456	; 0x10000000
 8000758:	ea45 1313 	orr.w	r3, r5, r3, lsr #4
 800075c:	ea43 6312 	orr.w	r3, r3, r2, lsr #24
 8000760:	ea4f 2202 	mov.w	r2, r2, lsl #8
 8000764:	ea45 1511 	orr.w	r5, r5, r1, lsr #4
 8000768:	ea45 6510 	orr.w	r5, r5, r0, lsr #24
 800076c:	ea4f 2600 	mov.w	r6, r0, lsl #8
 8000770:	f00e 4100 	and.w	r1, lr, #2147483648	; 0x80000000
 8000774:	429d      	cmp	r5, r3
 8000776:	bf08      	it	eq
 8000778:	4296      	cmpeq	r6, r2
 800077a:	f144 04fd 	adc.w	r4, r4, #253	; 0xfd
 800077e:	f504 7440 	add.w	r4, r4, #768	; 0x300
 8000782:	d202      	bcs.n	800078a <__aeabi_ddiv+0x6e>
 8000784:	085b      	lsrs	r3, r3, #1
 8000786:	ea4f 0232 	mov.w	r2, r2, rrx
 800078a:	1ab6      	subs	r6, r6, r2
 800078c:	eb65 0503 	sbc.w	r5, r5, r3
 8000790:	085b      	lsrs	r3, r3, #1
 8000792:	ea4f 0232 	mov.w	r2, r2, rrx
 8000796:	f44f 1080 	mov.w	r0, #1048576	; 0x100000
 800079a:	f44f 2c00 	mov.w	ip, #524288	; 0x80000
 800079e:	ebb6 0e02 	subs.w	lr, r6, r2
 80007a2:	eb75 0e03 	sbcs.w	lr, r5, r3
 80007a6:	bf22      	ittt	cs
 80007a8:	1ab6      	subcs	r6, r6, r2
 80007aa:	4675      	movcs	r5, lr
 80007ac:	ea40 000c 	orrcs.w	r0, r0, ip
 80007b0:	085b      	lsrs	r3, r3, #1
 80007b2:	ea4f 0232 	mov.w	r2, r2, rrx
 80007b6:	ebb6 0e02 	subs.w	lr, r6, r2
 80007ba:	eb75 0e03 	sbcs.w	lr, r5, r3
 80007be:	bf22      	ittt	cs
 80007c0:	1ab6      	subcs	r6, r6, r2
 80007c2:	4675      	movcs	r5, lr
 80007c4:	ea40 005c 	orrcs.w	r0, r0, ip, lsr #1
 80007c8:	085b      	lsrs	r3, r3, #1
 80007ca:	ea4f 0232 	mov.w	r2, r2, rrx
 80007ce:	ebb6 0e02 	subs.w	lr, r6, r2
 80007d2:	eb75 0e03 	sbcs.w	lr, r5, r3
 80007d6:	bf22      	ittt	cs
 80007d8:	1ab6      	subcs	r6, r6, r2
 80007da:	4675      	movcs	r5, lr
 80007dc:	ea40 009c 	orrcs.w	r0, r0, ip, lsr #2
 80007e0:	085b      	lsrs	r3, r3, #1
 80007e2:	ea4f 0232 	mov.w	r2, r2, rrx
 80007e6:	ebb6 0e02 	subs.w	lr, r6, r2
 80007ea:	eb75 0e03 	sbcs.w	lr, r5, r3
 80007ee:	bf22      	ittt	cs
 80007f0:	1ab6      	subcs	r6, r6, r2
 80007f2:	4675      	movcs	r5, lr
 80007f4:	ea40 00dc 	orrcs.w	r0, r0, ip, lsr #3
 80007f8:	ea55 0e06 	orrs.w	lr, r5, r6
 80007fc:	d018      	beq.n	8000830 <__aeabi_ddiv+0x114>
 80007fe:	ea4f 1505 	mov.w	r5, r5, lsl #4
 8000802:	ea45 7516 	orr.w	r5, r5, r6, lsr #28
 8000806:	ea4f 1606 	mov.w	r6, r6, lsl #4
 800080a:	ea4f 03c3 	mov.w	r3, r3, lsl #3
 800080e:	ea43 7352 	orr.w	r3, r3, r2, lsr #29
 8000812:	ea4f 02c2 	mov.w	r2, r2, lsl #3
 8000816:	ea5f 1c1c 	movs.w	ip, ip, lsr #4
 800081a:	d1c0      	bne.n	800079e <__aeabi_ddiv+0x82>
 800081c:	f411 1f80 	tst.w	r1, #1048576	; 0x100000
 8000820:	d10b      	bne.n	800083a <__aeabi_ddiv+0x11e>
 8000822:	ea41 0100 	orr.w	r1, r1, r0
 8000826:	f04f 0000 	mov.w	r0, #0
 800082a:	f04f 4c00 	mov.w	ip, #2147483648	; 0x80000000
 800082e:	e7b6      	b.n	800079e <__aeabi_ddiv+0x82>
 8000830:	f411 1f80 	tst.w	r1, #1048576	; 0x100000
 8000834:	bf04      	itt	eq
 8000836:	4301      	orreq	r1, r0
 8000838:	2000      	moveq	r0, #0
 800083a:	f1b4 0cfd 	subs.w	ip, r4, #253	; 0xfd
 800083e:	bf88      	it	hi
 8000840:	f5bc 6fe0 	cmphi.w	ip, #1792	; 0x700
 8000844:	f63f aeaf 	bhi.w	80005a6 <__aeabi_dmul+0xde>
 8000848:	ebb5 0c03 	subs.w	ip, r5, r3
 800084c:	bf04      	itt	eq
 800084e:	ebb6 0c02 	subseq.w	ip, r6, r2
 8000852:	ea5f 0c50 	movseq.w	ip, r0, lsr #1
 8000856:	f150 0000 	adcs.w	r0, r0, #0
 800085a:	eb41 5104 	adc.w	r1, r1, r4, lsl #20
 800085e:	bd70      	pop	{r4, r5, r6, pc}
 8000860:	f00e 4e00 	and.w	lr, lr, #2147483648	; 0x80000000
 8000864:	ea4e 3111 	orr.w	r1, lr, r1, lsr #12
 8000868:	eb14 045c 	adds.w	r4, r4, ip, lsr #1
 800086c:	bfc2      	ittt	gt
 800086e:	ebd4 050c 	rsbsgt	r5, r4, ip
 8000872:	ea41 5104 	orrgt.w	r1, r1, r4, lsl #20
 8000876:	bd70      	popgt	{r4, r5, r6, pc}
 8000878:	f441 1180 	orr.w	r1, r1, #1048576	; 0x100000
 800087c:	f04f 0e00 	mov.w	lr, #0
 8000880:	3c01      	subs	r4, #1
 8000882:	e690      	b.n	80005a6 <__aeabi_dmul+0xde>
 8000884:	ea45 0e06 	orr.w	lr, r5, r6
 8000888:	e68d      	b.n	80005a6 <__aeabi_dmul+0xde>
 800088a:	ea0c 5513 	and.w	r5, ip, r3, lsr #20
 800088e:	ea94 0f0c 	teq	r4, ip
 8000892:	bf08      	it	eq
 8000894:	ea95 0f0c 	teqeq	r5, ip
 8000898:	f43f af3b 	beq.w	8000712 <__aeabi_dmul+0x24a>
 800089c:	ea94 0f0c 	teq	r4, ip
 80008a0:	d10a      	bne.n	80008b8 <__aeabi_ddiv+0x19c>
 80008a2:	ea50 3401 	orrs.w	r4, r0, r1, lsl #12
 80008a6:	f47f af34 	bne.w	8000712 <__aeabi_dmul+0x24a>
 80008aa:	ea95 0f0c 	teq	r5, ip
 80008ae:	f47f af25 	bne.w	80006fc <__aeabi_dmul+0x234>
 80008b2:	4610      	mov	r0, r2
 80008b4:	4619      	mov	r1, r3
 80008b6:	e72c      	b.n	8000712 <__aeabi_dmul+0x24a>
 80008b8:	ea95 0f0c 	teq	r5, ip
 80008bc:	d106      	bne.n	80008cc <__aeabi_ddiv+0x1b0>
 80008be:	ea52 3503 	orrs.w	r5, r2, r3, lsl #12
 80008c2:	f43f aefd 	beq.w	80006c0 <__aeabi_dmul+0x1f8>
 80008c6:	4610      	mov	r0, r2
 80008c8:	4619      	mov	r1, r3
 80008ca:	e722      	b.n	8000712 <__aeabi_dmul+0x24a>
 80008cc:	ea50 0641 	orrs.w	r6, r0, r1, lsl #1
 80008d0:	bf18      	it	ne
 80008d2:	ea52 0643 	orrsne.w	r6, r2, r3, lsl #1
 80008d6:	f47f aec5 	bne.w	8000664 <__aeabi_dmul+0x19c>
 80008da:	ea50 0441 	orrs.w	r4, r0, r1, lsl #1
 80008de:	f47f af0d 	bne.w	80006fc <__aeabi_dmul+0x234>
 80008e2:	ea52 0543 	orrs.w	r5, r2, r3, lsl #1
 80008e6:	f47f aeeb 	bne.w	80006c0 <__aeabi_dmul+0x1f8>
 80008ea:	e712      	b.n	8000712 <__aeabi_dmul+0x24a>

080008ec <__aeabi_d2uiz>:
 80008ec:	004a      	lsls	r2, r1, #1
 80008ee:	d211      	bcs.n	8000914 <__aeabi_d2uiz+0x28>
 80008f0:	f512 1200 	adds.w	r2, r2, #2097152	; 0x200000
 80008f4:	d211      	bcs.n	800091a <__aeabi_d2uiz+0x2e>
 80008f6:	d50d      	bpl.n	8000914 <__aeabi_d2uiz+0x28>
 80008f8:	f46f 7378 	mvn.w	r3, #992	; 0x3e0
 80008fc:	ebb3 5262 	subs.w	r2, r3, r2, asr #21
 8000900:	d40e      	bmi.n	8000920 <__aeabi_d2uiz+0x34>
 8000902:	ea4f 23c1 	mov.w	r3, r1, lsl #11
 8000906:	f043 4300 	orr.w	r3, r3, #2147483648	; 0x80000000
 800090a:	ea43 5350 	orr.w	r3, r3, r0, lsr #21
 800090e:	fa23 f002 	lsr.w	r0, r3, r2
 8000912:	4770      	bx	lr
 8000914:	f04f 0000 	mov.w	r0, #0
 8000918:	4770      	bx	lr
 800091a:	ea50 3001 	orrs.w	r0, r0, r1, lsl #12
 800091e:	d102      	bne.n	8000926 <__aeabi_d2uiz+0x3a>
 8000920:	f04f 30ff 	mov.w	r0, #4294967295
 8000924:	4770      	bx	lr
 8000926:	f04f 0000 	mov.w	r0, #0
 800092a:	4770      	bx	lr

0800092c <HAL_InitTick>:
 800092c:	b538      	push	{r3, r4, r5, lr}
 800092e:	f44f 737a 	mov.w	r3, #1000	; 0x3e8
 8000932:	490d      	ldr	r1, [pc, #52]	; (8000968 <HAL_InitTick+0x3c>)
 8000934:	4a0d      	ldr	r2, [pc, #52]	; (800096c <HAL_InitTick+0x40>)
 8000936:	7809      	ldrb	r1, [r1, #0]
 8000938:	6812      	ldr	r2, [r2, #0]
 800093a:	fbb3 f3f1 	udiv	r3, r3, r1
 800093e:	4605      	mov	r5, r0
 8000940:	fbb2 f0f3 	udiv	r0, r2, r3
 8000944:	f000 f8a2 	bl	8000a8c <HAL_SYSTICK_Config>
 8000948:	b908      	cbnz	r0, 800094e <HAL_InitTick+0x22>
 800094a:	2d0f      	cmp	r5, #15
 800094c:	d901      	bls.n	8000952 <HAL_InitTick+0x26>
 800094e:	2001      	movs	r0, #1
 8000950:	bd38      	pop	{r3, r4, r5, pc}
 8000952:	4604      	mov	r4, r0
 8000954:	4602      	mov	r2, r0
 8000956:	4629      	mov	r1, r5
 8000958:	f04f 30ff 	mov.w	r0, #4294967295
 800095c:	f000 f852 	bl	8000a04 <HAL_NVIC_SetPriority>
 8000960:	4b03      	ldr	r3, [pc, #12]	; (8000970 <HAL_InitTick+0x44>)
 8000962:	4620      	mov	r0, r4
 8000964:	601d      	str	r5, [r3, #0]
 8000966:	bd38      	pop	{r3, r4, r5, pc}
 8000968:	20000000 	.word	0x20000000
 800096c:	20000118 	.word	0x20000118
 8000970:	20000004 	.word	0x20000004

08000974 <HAL_Init>:
 8000974:	4a07      	ldr	r2, [pc, #28]	; (8000994 <HAL_Init+0x20>)
 8000976:	b508      	push	{r3, lr}
 8000978:	6813      	ldr	r3, [r2, #0]
 800097a:	2003      	movs	r0, #3
 800097c:	f043 0310 	orr.w	r3, r3, #16
 8000980:	6013      	str	r3, [r2, #0]
 8000982:	f000 f82d 	bl	80009e0 <HAL_NVIC_SetPriorityGrouping>
 8000986:	2000      	movs	r0, #0
 8000988:	f7ff ffd0 	bl	800092c <HAL_InitTick>
 800098c:	f003 f82a 	bl	80039e4 <HAL_MspInit>
 8000990:	2000      	movs	r0, #0
 8000992:	bd08      	pop	{r3, pc}
 8000994:	40022000 	.word	0x40022000

08000998 <HAL_IncTick>:
 8000998:	4a03      	ldr	r2, [pc, #12]	; (80009a8 <HAL_IncTick+0x10>)
 800099a:	4b04      	ldr	r3, [pc, #16]	; (80009ac <HAL_IncTick+0x14>)
 800099c:	6811      	ldr	r1, [r2, #0]
 800099e:	781b      	ldrb	r3, [r3, #0]
 80009a0:	440b      	add	r3, r1
 80009a2:	6013      	str	r3, [r2, #0]
 80009a4:	4770      	bx	lr
 80009a6:	bf00      	nop
 80009a8:	20000220 	.word	0x20000220
 80009ac:	20000000 	.word	0x20000000

080009b0 <HAL_GetTick>:
 80009b0:	4b01      	ldr	r3, [pc, #4]	; (80009b8 <HAL_GetTick+0x8>)
 80009b2:	6818      	ldr	r0, [r3, #0]
 80009b4:	4770      	bx	lr
 80009b6:	bf00      	nop
 80009b8:	20000220 	.word	0x20000220

080009bc <HAL_Delay>:
 80009bc:	b538      	push	{r3, r4, r5, lr}
 80009be:	4604      	mov	r4, r0
 80009c0:	f7ff fff6 	bl	80009b0 <HAL_GetTick>
 80009c4:	1c63      	adds	r3, r4, #1
 80009c6:	4605      	mov	r5, r0
 80009c8:	d002      	beq.n	80009d0 <HAL_Delay+0x14>
 80009ca:	4b04      	ldr	r3, [pc, #16]	; (80009dc <HAL_Delay+0x20>)
 80009cc:	781b      	ldrb	r3, [r3, #0]
 80009ce:	441c      	add	r4, r3
 80009d0:	f7ff ffee 	bl	80009b0 <HAL_GetTick>
 80009d4:	1b40      	subs	r0, r0, r5
 80009d6:	42a0      	cmp	r0, r4
 80009d8:	d3fa      	bcc.n	80009d0 <HAL_Delay+0x14>
 80009da:	bd38      	pop	{r3, r4, r5, pc}
 80009dc:	20000000 	.word	0x20000000

080009e0 <HAL_NVIC_SetPriorityGrouping>:
 80009e0:	f64f 01ff 	movw	r1, #63743	; 0xf8ff
 80009e4:	4a06      	ldr	r2, [pc, #24]	; (8000a00 <HAL_NVIC_SetPriorityGrouping+0x20>)
 80009e6:	0200      	lsls	r0, r0, #8
 80009e8:	68d3      	ldr	r3, [r2, #12]
 80009ea:	f400 60e0 	and.w	r0, r0, #1792	; 0x700
 80009ee:	400b      	ands	r3, r1
 80009f0:	f043 63bf 	orr.w	r3, r3, #100139008	; 0x5f80000
 80009f4:	f443 3300 	orr.w	r3, r3, #131072	; 0x20000
 80009f8:	4303      	orrs	r3, r0
 80009fa:	60d3      	str	r3, [r2, #12]
 80009fc:	4770      	bx	lr
 80009fe:	bf00      	nop
 8000a00:	e000ed00 	.word	0xe000ed00

08000a04 <HAL_NVIC_SetPriority>:
 8000a04:	4b18      	ldr	r3, [pc, #96]	; (8000a68 <HAL_NVIC_SetPriority+0x64>)
 8000a06:	b430      	push	{r4, r5}
 8000a08:	68db      	ldr	r3, [r3, #12]
 8000a0a:	f3c3 2302 	ubfx	r3, r3, #8, #3
 8000a0e:	f1c3 0507 	rsb	r5, r3, #7
 8000a12:	2d04      	cmp	r5, #4
 8000a14:	f103 0404 	add.w	r4, r3, #4
 8000a18:	bf28      	it	cs
 8000a1a:	2504      	movcs	r5, #4
 8000a1c:	2c06      	cmp	r4, #6
 8000a1e:	d919      	bls.n	8000a54 <HAL_NVIC_SetPriority+0x50>
 8000a20:	f04f 34ff 	mov.w	r4, #4294967295
 8000a24:	3b03      	subs	r3, #3
 8000a26:	409c      	lsls	r4, r3
 8000a28:	ea22 0404 	bic.w	r4, r2, r4
 8000a2c:	f04f 32ff 	mov.w	r2, #4294967295
 8000a30:	40aa      	lsls	r2, r5
 8000a32:	ea21 0102 	bic.w	r1, r1, r2
 8000a36:	fa01 f203 	lsl.w	r2, r1, r3
 8000a3a:	4322      	orrs	r2, r4
 8000a3c:	0112      	lsls	r2, r2, #4
 8000a3e:	2800      	cmp	r0, #0
 8000a40:	b2d2      	uxtb	r2, r2
 8000a42:	db0a      	blt.n	8000a5a <HAL_NVIC_SetPriority+0x56>
 8000a44:	f100 4060 	add.w	r0, r0, #3758096384	; 0xe0000000
 8000a48:	f500 4061 	add.w	r0, r0, #57600	; 0xe100
 8000a4c:	f880 2300 	strb.w	r2, [r0, #768]	; 0x300
 8000a50:	bc30      	pop	{r4, r5}
 8000a52:	4770      	bx	lr
 8000a54:	2400      	movs	r4, #0
 8000a56:	4623      	mov	r3, r4
 8000a58:	e7e8      	b.n	8000a2c <HAL_NVIC_SetPriority+0x28>
 8000a5a:	4b04      	ldr	r3, [pc, #16]	; (8000a6c <HAL_NVIC_SetPriority+0x68>)
 8000a5c:	f000 000f 	and.w	r0, r0, #15
 8000a60:	4403      	add	r3, r0
 8000a62:	761a      	strb	r2, [r3, #24]
 8000a64:	bc30      	pop	{r4, r5}
 8000a66:	4770      	bx	lr
 8000a68:	e000ed00 	.word	0xe000ed00
 8000a6c:	e000ecfc 	.word	0xe000ecfc

08000a70 <HAL_NVIC_EnableIRQ>:
 8000a70:	2800      	cmp	r0, #0
 8000a72:	db07      	blt.n	8000a84 <HAL_NVIC_EnableIRQ+0x14>
 8000a74:	2301      	movs	r3, #1
 8000a76:	f000 011f 	and.w	r1, r0, #31
 8000a7a:	4a03      	ldr	r2, [pc, #12]	; (8000a88 <HAL_NVIC_EnableIRQ+0x18>)
 8000a7c:	408b      	lsls	r3, r1
 8000a7e:	0940      	lsrs	r0, r0, #5
 8000a80:	f842 3020 	str.w	r3, [r2, r0, lsl #2]
 8000a84:	4770      	bx	lr
 8000a86:	bf00      	nop
 8000a88:	e000e100 	.word	0xe000e100

08000a8c <HAL_SYSTICK_Config>:
 8000a8c:	3801      	subs	r0, #1
 8000a8e:	f1b0 7f80 	cmp.w	r0, #16777216	; 0x1000000
 8000a92:	d20d      	bcs.n	8000ab0 <HAL_SYSTICK_Config+0x24>
 8000a94:	b430      	push	{r4, r5}
 8000a96:	25f0      	movs	r5, #240	; 0xf0
 8000a98:	2200      	movs	r2, #0
 8000a9a:	2107      	movs	r1, #7
 8000a9c:	4b05      	ldr	r3, [pc, #20]	; (8000ab4 <HAL_SYSTICK_Config+0x28>)
 8000a9e:	4c06      	ldr	r4, [pc, #24]	; (8000ab8 <HAL_SYSTICK_Config+0x2c>)
 8000aa0:	6058      	str	r0, [r3, #4]
 8000aa2:	f884 5023 	strb.w	r5, [r4, #35]	; 0x23
 8000aa6:	4610      	mov	r0, r2
 8000aa8:	bc30      	pop	{r4, r5}
 8000aaa:	609a      	str	r2, [r3, #8]
 8000aac:	6019      	str	r1, [r3, #0]
 8000aae:	4770      	bx	lr
 8000ab0:	2001      	movs	r0, #1
 8000ab2:	4770      	bx	lr
 8000ab4:	e000e010 	.word	0xe000e010
 8000ab8:	e000ed00 	.word	0xe000ed00

08000abc <HAL_GPIO_Init>:
 8000abc:	680a      	ldr	r2, [r1, #0]
 8000abe:	2a00      	cmp	r2, #0
 8000ac0:	f000 80db 	beq.w	8000c7a <HAL_GPIO_Init+0x1be>
 8000ac4:	e92d 4ff0 	stmdb	sp!, {r4, r5, r6, r7, r8, r9, sl, fp, lr}
 8000ac8:	f04f 0a00 	mov.w	sl, #0
 8000acc:	b085      	sub	sp, #20
 8000ace:	4655      	mov	r5, sl
 8000ad0:	f8df c1d0 	ldr.w	ip, [pc, #464]	; 8000ca4 <HAL_GPIO_Init+0x1e8>
 8000ad4:	f8df e1d0 	ldr.w	lr, [pc, #464]	; 8000ca8 <HAL_GPIO_Init+0x1ec>
 8000ad8:	4f6d      	ldr	r7, [pc, #436]	; (8000c90 <HAL_GPIO_Init+0x1d4>)
 8000ada:	f8df 81d0 	ldr.w	r8, [pc, #464]	; 8000cac <HAL_GPIO_Init+0x1f0>
 8000ade:	e003      	b.n	8000ae8 <HAL_GPIO_Init+0x2c>
 8000ae0:	3501      	adds	r5, #1
 8000ae2:	fa32 f305 	lsrs.w	r3, r2, r5
 8000ae6:	d078      	beq.n	8000bda <HAL_GPIO_Init+0x11e>
 8000ae8:	2301      	movs	r3, #1
 8000aea:	40ab      	lsls	r3, r5
 8000aec:	ea02 0403 	and.w	r4, r2, r3
 8000af0:	42a3      	cmp	r3, r4
 8000af2:	d1f5      	bne.n	8000ae0 <HAL_GPIO_Init+0x24>
 8000af4:	684a      	ldr	r2, [r1, #4]
 8000af6:	2a12      	cmp	r2, #18
 8000af8:	f000 809e 	beq.w	8000c38 <HAL_GPIO_Init+0x17c>
 8000afc:	f200 8087 	bhi.w	8000c0e <HAL_GPIO_Init+0x152>
 8000b00:	2a02      	cmp	r2, #2
 8000b02:	f000 809d 	beq.w	8000c40 <HAL_GPIO_Init+0x184>
 8000b06:	d97c      	bls.n	8000c02 <HAL_GPIO_Init+0x146>
 8000b08:	2a03      	cmp	r2, #3
 8000b0a:	d069      	beq.n	8000be0 <HAL_GPIO_Init+0x124>
 8000b0c:	2a11      	cmp	r2, #17
 8000b0e:	d102      	bne.n	8000b16 <HAL_GPIO_Init+0x5a>
 8000b10:	68cb      	ldr	r3, [r1, #12]
 8000b12:	f103 0a04 	add.w	sl, r3, #4
 8000b16:	2cff      	cmp	r4, #255	; 0xff
 8000b18:	d866      	bhi.n	8000be8 <HAL_GPIO_Init+0x12c>
 8000b1a:	4681      	mov	r9, r0
 8000b1c:	6803      	ldr	r3, [r0, #0]
 8000b1e:	00aa      	lsls	r2, r5, #2
 8000b20:	260f      	movs	r6, #15
 8000b22:	fa06 fb02 	lsl.w	fp, r6, r2
 8000b26:	ea23 030b 	bic.w	r3, r3, fp
 8000b2a:	fa0a f202 	lsl.w	r2, sl, r2
 8000b2e:	4313      	orrs	r3, r2
 8000b30:	f8c9 3000 	str.w	r3, [r9]
 8000b34:	684a      	ldr	r2, [r1, #4]
 8000b36:	00d3      	lsls	r3, r2, #3
 8000b38:	d561      	bpl.n	8000bfe <HAL_GPIO_Init+0x142>
 8000b3a:	f8dc 9018 	ldr.w	r9, [ip, #24]
 8000b3e:	f025 0303 	bic.w	r3, r5, #3
 8000b42:	f049 0901 	orr.w	r9, r9, #1
 8000b46:	f8cc 9018 	str.w	r9, [ip, #24]
 8000b4a:	f8dc 9018 	ldr.w	r9, [ip, #24]
 8000b4e:	f103 4380 	add.w	r3, r3, #1073741824	; 0x40000000
 8000b52:	f009 0901 	and.w	r9, r9, #1
 8000b56:	f8cd 900c 	str.w	r9, [sp, #12]
 8000b5a:	f503 3380 	add.w	r3, r3, #65536	; 0x10000
 8000b5e:	f005 0903 	and.w	r9, r5, #3
 8000b62:	f8dd b00c 	ldr.w	fp, [sp, #12]
 8000b66:	ea4f 0989 	mov.w	r9, r9, lsl #2
 8000b6a:	f8d3 b008 	ldr.w	fp, [r3, #8]
 8000b6e:	fa06 f609 	lsl.w	r6, r6, r9
 8000b72:	ea2b 0606 	bic.w	r6, fp, r6
 8000b76:	4570      	cmp	r0, lr
 8000b78:	9601      	str	r6, [sp, #4]
 8000b7a:	d011      	beq.n	8000ba0 <HAL_GPIO_Init+0xe4>
 8000b7c:	4540      	cmp	r0, r8
 8000b7e:	d063      	beq.n	8000c48 <HAL_GPIO_Init+0x18c>
 8000b80:	4e44      	ldr	r6, [pc, #272]	; (8000c94 <HAL_GPIO_Init+0x1d8>)
 8000b82:	42b0      	cmp	r0, r6
 8000b84:	d07a      	beq.n	8000c7c <HAL_GPIO_Init+0x1c0>
 8000b86:	4e44      	ldr	r6, [pc, #272]	; (8000c98 <HAL_GPIO_Init+0x1dc>)
 8000b88:	42b0      	cmp	r0, r6
 8000b8a:	bf0c      	ite	eq
 8000b8c:	f04f 0b03 	moveq.w	fp, #3
 8000b90:	f04f 0b04 	movne.w	fp, #4
 8000b94:	9e01      	ldr	r6, [sp, #4]
 8000b96:	fa0b f909 	lsl.w	r9, fp, r9
 8000b9a:	ea46 0609 	orr.w	r6, r6, r9
 8000b9e:	9601      	str	r6, [sp, #4]
 8000ba0:	609e      	str	r6, [r3, #8]
 8000ba2:	683b      	ldr	r3, [r7, #0]
 8000ba4:	03d6      	lsls	r6, r2, #15
 8000ba6:	bf4c      	ite	mi
 8000ba8:	4323      	orrmi	r3, r4
 8000baa:	43a3      	bicpl	r3, r4
 8000bac:	603b      	str	r3, [r7, #0]
 8000bae:	687b      	ldr	r3, [r7, #4]
 8000bb0:	0396      	lsls	r6, r2, #14
 8000bb2:	bf4c      	ite	mi
 8000bb4:	4323      	orrmi	r3, r4
 8000bb6:	43a3      	bicpl	r3, r4
 8000bb8:	607b      	str	r3, [r7, #4]
 8000bba:	68bb      	ldr	r3, [r7, #8]
 8000bbc:	02d6      	lsls	r6, r2, #11
 8000bbe:	bf4c      	ite	mi
 8000bc0:	4323      	orrmi	r3, r4
 8000bc2:	43a3      	bicpl	r3, r4
 8000bc4:	60bb      	str	r3, [r7, #8]
 8000bc6:	0292      	lsls	r2, r2, #10
 8000bc8:	68fb      	ldr	r3, [r7, #12]
 8000bca:	d515      	bpl.n	8000bf8 <HAL_GPIO_Init+0x13c>
 8000bcc:	431c      	orrs	r4, r3
 8000bce:	60fc      	str	r4, [r7, #12]
 8000bd0:	680a      	ldr	r2, [r1, #0]
 8000bd2:	3501      	adds	r5, #1
 8000bd4:	fa32 f305 	lsrs.w	r3, r2, r5
 8000bd8:	d186      	bne.n	8000ae8 <HAL_GPIO_Init+0x2c>
 8000bda:	b005      	add	sp, #20
 8000bdc:	e8bd 8ff0 	ldmia.w	sp!, {r4, r5, r6, r7, r8, r9, sl, fp, pc}
 8000be0:	2cff      	cmp	r4, #255	; 0xff
 8000be2:	f04f 0a00 	mov.w	sl, #0
 8000be6:	d998      	bls.n	8000b1a <HAL_GPIO_Init+0x5e>
 8000be8:	f105 4280 	add.w	r2, r5, #1073741824	; 0x40000000
 8000bec:	3a08      	subs	r2, #8
 8000bee:	6843      	ldr	r3, [r0, #4]
 8000bf0:	0092      	lsls	r2, r2, #2
 8000bf2:	f100 0904 	add.w	r9, r0, #4
 8000bf6:	e793      	b.n	8000b20 <HAL_GPIO_Init+0x64>
 8000bf8:	ea23 0404 	bic.w	r4, r3, r4
 8000bfc:	60fc      	str	r4, [r7, #12]
 8000bfe:	680a      	ldr	r2, [r1, #0]
 8000c00:	e76e      	b.n	8000ae0 <HAL_GPIO_Init+0x24>
 8000c02:	b1a2      	cbz	r2, 8000c2e <HAL_GPIO_Init+0x172>
 8000c04:	2a01      	cmp	r2, #1
 8000c06:	d186      	bne.n	8000b16 <HAL_GPIO_Init+0x5a>
 8000c08:	f8d1 a00c 	ldr.w	sl, [r1, #12]
 8000c0c:	e783      	b.n	8000b16 <HAL_GPIO_Init+0x5a>
 8000c0e:	4e23      	ldr	r6, [pc, #140]	; (8000c9c <HAL_GPIO_Init+0x1e0>)
 8000c10:	42b2      	cmp	r2, r6
 8000c12:	d00c      	beq.n	8000c2e <HAL_GPIO_Init+0x172>
 8000c14:	d920      	bls.n	8000c58 <HAL_GPIO_Init+0x19c>
 8000c16:	4e22      	ldr	r6, [pc, #136]	; (8000ca0 <HAL_GPIO_Init+0x1e4>)
 8000c18:	42b2      	cmp	r2, r6
 8000c1a:	d008      	beq.n	8000c2e <HAL_GPIO_Init+0x172>
 8000c1c:	f506 3680 	add.w	r6, r6, #65536	; 0x10000
 8000c20:	42b2      	cmp	r2, r6
 8000c22:	d004      	beq.n	8000c2e <HAL_GPIO_Init+0x172>
 8000c24:	f5a6 1680 	sub.w	r6, r6, #1048576	; 0x100000
 8000c28:	42b2      	cmp	r2, r6
 8000c2a:	f47f af74 	bne.w	8000b16 <HAL_GPIO_Init+0x5a>
 8000c2e:	688a      	ldr	r2, [r1, #8]
 8000c30:	b9e2      	cbnz	r2, 8000c6c <HAL_GPIO_Init+0x1b0>
 8000c32:	f04f 0a04 	mov.w	sl, #4
 8000c36:	e76e      	b.n	8000b16 <HAL_GPIO_Init+0x5a>
 8000c38:	68cb      	ldr	r3, [r1, #12]
 8000c3a:	f103 0a0c 	add.w	sl, r3, #12
 8000c3e:	e76a      	b.n	8000b16 <HAL_GPIO_Init+0x5a>
 8000c40:	68cb      	ldr	r3, [r1, #12]
 8000c42:	f103 0a08 	add.w	sl, r3, #8
 8000c46:	e766      	b.n	8000b16 <HAL_GPIO_Init+0x5a>
 8000c48:	f04f 0b01 	mov.w	fp, #1
 8000c4c:	fa0b f909 	lsl.w	r9, fp, r9
 8000c50:	ea46 0609 	orr.w	r6, r6, r9
 8000c54:	9601      	str	r6, [sp, #4]
 8000c56:	e7a3      	b.n	8000ba0 <HAL_GPIO_Init+0xe4>
 8000c58:	f5a6 1680 	sub.w	r6, r6, #1048576	; 0x100000
 8000c5c:	42b2      	cmp	r2, r6
 8000c5e:	d0e6      	beq.n	8000c2e <HAL_GPIO_Init+0x172>
 8000c60:	f506 3680 	add.w	r6, r6, #65536	; 0x10000
 8000c64:	42b2      	cmp	r2, r6
 8000c66:	f47f af56 	bne.w	8000b16 <HAL_GPIO_Init+0x5a>
 8000c6a:	e7e0      	b.n	8000c2e <HAL_GPIO_Init+0x172>
 8000c6c:	2a01      	cmp	r2, #1
 8000c6e:	bf0c      	ite	eq
 8000c70:	6103      	streq	r3, [r0, #16]
 8000c72:	6143      	strne	r3, [r0, #20]
 8000c74:	f04f 0a08 	mov.w	sl, #8
 8000c78:	e74d      	b.n	8000b16 <HAL_GPIO_Init+0x5a>
 8000c7a:	4770      	bx	lr
 8000c7c:	f04f 0b02 	mov.w	fp, #2
 8000c80:	9e01      	ldr	r6, [sp, #4]
 8000c82:	fa0b f909 	lsl.w	r9, fp, r9
 8000c86:	ea46 0609 	orr.w	r6, r6, r9
 8000c8a:	9601      	str	r6, [sp, #4]
 8000c8c:	e788      	b.n	8000ba0 <HAL_GPIO_Init+0xe4>
 8000c8e:	bf00      	nop
 8000c90:	40010400 	.word	0x40010400
 8000c94:	40011000 	.word	0x40011000
 8000c98:	40011400 	.word	0x40011400
 8000c9c:	10210000 	.word	0x10210000
 8000ca0:	10310000 	.word	0x10310000
 8000ca4:	40021000 	.word	0x40021000
 8000ca8:	40010800 	.word	0x40010800
 8000cac:	40010c00 	.word	0x40010c00

08000cb0 <HAL_GPIO_WritePin>:
 8000cb0:	b902      	cbnz	r2, 8000cb4 <HAL_GPIO_WritePin+0x4>
 8000cb2:	0409      	lsls	r1, r1, #16
 8000cb4:	6101      	str	r1, [r0, #16]
 8000cb6:	4770      	bx	lr

08000cb8 <HAL_PCD_Init>:
 8000cb8:	b5f0      	push	{r4, r5, r6, r7, lr}
 8000cba:	b087      	sub	sp, #28
 8000cbc:	2800      	cmp	r0, #0
 8000cbe:	d074      	beq.n	8000daa <HAL_PCD_Init+0xf2>
 8000cc0:	f890 3229 	ldrb.w	r3, [r0, #553]	; 0x229
 8000cc4:	4604      	mov	r4, r0
 8000cc6:	f003 02ff 	and.w	r2, r3, #255	; 0xff
 8000cca:	2b00      	cmp	r3, #0
 8000ccc:	d068      	beq.n	8000da0 <HAL_PCD_Init+0xe8>
 8000cce:	2303      	movs	r3, #3
 8000cd0:	4626      	mov	r6, r4
 8000cd2:	f884 3229 	strb.w	r3, [r4, #553]	; 0x229
 8000cd6:	6820      	ldr	r0, [r4, #0]
 8000cd8:	f000 ff8a 	bl	8001bf0 <USB_DisableGlobalInt>
 8000cdc:	f856 cb10 	ldr.w	ip, [r6], #16
 8000ce0:	466d      	mov	r5, sp
 8000ce2:	4637      	mov	r7, r6
 8000ce4:	cf0f      	ldmia	r7!, {r0, r1, r2, r3}
 8000ce6:	c50f      	stmia	r5!, {r0, r1, r2, r3}
 8000ce8:	683b      	ldr	r3, [r7, #0]
 8000cea:	1d27      	adds	r7, r4, #4
 8000cec:	602b      	str	r3, [r5, #0]
 8000cee:	4660      	mov	r0, ip
 8000cf0:	e897 000e 	ldmia.w	r7, {r1, r2, r3}
 8000cf4:	f000 ff6a 	bl	8001bcc <USB_CoreInit>
 8000cf8:	4605      	mov	r5, r0
 8000cfa:	b130      	cbz	r0, 8000d0a <HAL_PCD_Init+0x52>
 8000cfc:	2302      	movs	r3, #2
 8000cfe:	2501      	movs	r5, #1
 8000d00:	f884 3229 	strb.w	r3, [r4, #553]	; 0x229
 8000d04:	4628      	mov	r0, r5
 8000d06:	b007      	add	sp, #28
 8000d08:	bdf0      	pop	{r4, r5, r6, r7, pc}
 8000d0a:	4601      	mov	r1, r0
 8000d0c:	6820      	ldr	r0, [r4, #0]
 8000d0e:	f000 ff79 	bl	8001c04 <USB_SetCurrentMode>
 8000d12:	f8d4 c004 	ldr.w	ip, [r4, #4]
 8000d16:	f1bc 0f00 	cmp.w	ip, #0
 8000d1a:	d029      	beq.n	8000d70 <HAL_PCD_Init+0xb8>
 8000d1c:	4628      	mov	r0, r5
 8000d1e:	f04f 0e01 	mov.w	lr, #1
 8000d22:	462a      	mov	r2, r5
 8000d24:	eb04 1340 	add.w	r3, r4, r0, lsl #5
 8000d28:	1c45      	adds	r5, r0, #1
 8000d2a:	f883 0028 	strb.w	r0, [r3, #40]	; 0x28
 8000d2e:	86d8      	strh	r0, [r3, #54]	; 0x36
 8000d30:	b2e8      	uxtb	r0, r5
 8000d32:	4560      	cmp	r0, ip
 8000d34:	f883 e029 	strb.w	lr, [r3, #41]	; 0x29
 8000d38:	f883 202b 	strb.w	r2, [r3, #43]	; 0x2b
 8000d3c:	e9c3 220e 	strd	r2, r2, [r3, #56]	; 0x38
 8000d40:	641a      	str	r2, [r3, #64]	; 0x40
 8000d42:	d3ef      	bcc.n	8000d24 <HAL_PCD_Init+0x6c>
 8000d44:	2300      	movs	r3, #0
 8000d46:	4619      	mov	r1, r3
 8000d48:	eb04 1243 	add.w	r2, r4, r3, lsl #5
 8000d4c:	1c5d      	adds	r5, r3, #1
 8000d4e:	f103 000a 	add.w	r0, r3, #10
 8000d52:	f882 3128 	strb.w	r3, [r2, #296]	; 0x128
 8000d56:	b2eb      	uxtb	r3, r5
 8000d58:	0140      	lsls	r0, r0, #5
 8000d5a:	4563      	cmp	r3, ip
 8000d5c:	f882 1129 	strb.w	r1, [r2, #297]	; 0x129
 8000d60:	f882 112b 	strb.w	r1, [r2, #299]	; 0x12b
 8000d64:	f8c2 1138 	str.w	r1, [r2, #312]	; 0x138
 8000d68:	f8c2 113c 	str.w	r1, [r2, #316]	; 0x13c
 8000d6c:	5021      	str	r1, [r4, r0]
 8000d6e:	d3eb      	bcc.n	8000d48 <HAL_PCD_Init+0x90>
 8000d70:	ce0f      	ldmia	r6!, {r0, r1, r2, r3}
 8000d72:	466d      	mov	r5, sp
 8000d74:	f8d4 c000 	ldr.w	ip, [r4]
 8000d78:	c50f      	stmia	r5!, {r0, r1, r2, r3}
 8000d7a:	6833      	ldr	r3, [r6, #0]
 8000d7c:	4660      	mov	r0, ip
 8000d7e:	602b      	str	r3, [r5, #0]
 8000d80:	e897 000e 	ldmia.w	r7, {r1, r2, r3}
 8000d84:	f000 ff40 	bl	8001c08 <USB_DevInit>
 8000d88:	4605      	mov	r5, r0
 8000d8a:	2800      	cmp	r0, #0
 8000d8c:	d1b6      	bne.n	8000cfc <HAL_PCD_Init+0x44>
 8000d8e:	2301      	movs	r3, #1
 8000d90:	f884 0024 	strb.w	r0, [r4, #36]	; 0x24
 8000d94:	6820      	ldr	r0, [r4, #0]
 8000d96:	f884 3229 	strb.w	r3, [r4, #553]	; 0x229
 8000d9a:	f001 fb53 	bl	8002444 <USB_DevDisconnect>
 8000d9e:	e7b1      	b.n	8000d04 <HAL_PCD_Init+0x4c>
 8000da0:	f880 2228 	strb.w	r2, [r0, #552]	; 0x228
 8000da4:	f002 feaa 	bl	8003afc <HAL_PCD_MspInit>
 8000da8:	e791      	b.n	8000cce <HAL_PCD_Init+0x16>
 8000daa:	2501      	movs	r5, #1
 8000dac:	4628      	mov	r0, r5
 8000dae:	b007      	add	sp, #28
 8000db0:	bdf0      	pop	{r4, r5, r6, r7, pc}
 8000db2:	bf00      	nop

08000db4 <HAL_PCD_Start>:
 8000db4:	f890 3228 	ldrb.w	r3, [r0, #552]	; 0x228
 8000db8:	2b01      	cmp	r3, #1
 8000dba:	d010      	beq.n	8000dde <HAL_PCD_Start+0x2a>
 8000dbc:	2101      	movs	r1, #1
 8000dbe:	b510      	push	{r4, lr}
 8000dc0:	4604      	mov	r4, r0
 8000dc2:	f880 1228 	strb.w	r1, [r0, #552]	; 0x228
 8000dc6:	f002 ffbb 	bl	8003d40 <HAL_PCDEx_SetConnectionState>
 8000dca:	6820      	ldr	r0, [r4, #0]
 8000dcc:	f001 fb38 	bl	8002440 <USB_DevConnect>
 8000dd0:	6820      	ldr	r0, [r4, #0]
 8000dd2:	f000 ff03 	bl	8001bdc <USB_EnableGlobalInt>
 8000dd6:	2000      	movs	r0, #0
 8000dd8:	f884 0228 	strb.w	r0, [r4, #552]	; 0x228
 8000ddc:	bd10      	pop	{r4, pc}
 8000dde:	2002      	movs	r0, #2
 8000de0:	4770      	bx	lr
 8000de2:	bf00      	nop

08000de4 <HAL_PCD_IRQHandler>:
 8000de4:	e92d 4ff8 	stmdb	sp!, {r3, r4, r5, r6, r7, r8, r9, sl, fp, lr}
 8000de8:	4604      	mov	r4, r0
 8000dea:	6800      	ldr	r0, [r0, #0]
 8000dec:	f001 fb2c 	bl	8002448 <USB_ReadInterrupts>
 8000df0:	0401      	lsls	r1, r0, #16
 8000df2:	6822      	ldr	r2, [r4, #0]
 8000df4:	d443      	bmi.n	8000e7e <HAL_PCD_IRQHandler+0x9a>
 8000df6:	4610      	mov	r0, r2
 8000df8:	f001 fb26 	bl	8002448 <USB_ReadInterrupts>
 8000dfc:	0546      	lsls	r6, r0, #21
 8000dfe:	f100 8171 	bmi.w	80010e4 <HAL_PCD_IRQHandler+0x300>
 8000e02:	6820      	ldr	r0, [r4, #0]
 8000e04:	f001 fb20 	bl	8002448 <USB_ReadInterrupts>
 8000e08:	f410 4f80 	tst.w	r0, #16384	; 0x4000
 8000e0c:	6820      	ldr	r0, [r4, #0]
 8000e0e:	d007      	beq.n	8000e20 <HAL_PCD_IRQHandler+0x3c>
 8000e10:	f8b0 3044 	ldrh.w	r3, [r0, #68]	; 0x44
 8000e14:	f423 4380 	bic.w	r3, r3, #16384	; 0x4000
 8000e18:	041b      	lsls	r3, r3, #16
 8000e1a:	0c1b      	lsrs	r3, r3, #16
 8000e1c:	f8a0 3044 	strh.w	r3, [r0, #68]	; 0x44
 8000e20:	f001 fb12 	bl	8002448 <USB_ReadInterrupts>
 8000e24:	f410 5f00 	tst.w	r0, #8192	; 0x2000
 8000e28:	6820      	ldr	r0, [r4, #0]
 8000e2a:	d007      	beq.n	8000e3c <HAL_PCD_IRQHandler+0x58>
 8000e2c:	f8b0 3044 	ldrh.w	r3, [r0, #68]	; 0x44
 8000e30:	f423 5300 	bic.w	r3, r3, #8192	; 0x2000
 8000e34:	041b      	lsls	r3, r3, #16
 8000e36:	0c1b      	lsrs	r3, r3, #16
 8000e38:	f8a0 3044 	strh.w	r3, [r0, #68]	; 0x44
 8000e3c:	f001 fb04 	bl	8002448 <USB_ReadInterrupts>
 8000e40:	04c5      	lsls	r5, r0, #19
 8000e42:	f100 8131 	bmi.w	80010a8 <HAL_PCD_IRQHandler+0x2c4>
 8000e46:	6820      	ldr	r0, [r4, #0]
 8000e48:	f001 fafe 	bl	8002448 <USB_ReadInterrupts>
 8000e4c:	0500      	lsls	r0, r0, #20
 8000e4e:	f100 8104 	bmi.w	800105a <HAL_PCD_IRQHandler+0x276>
 8000e52:	6820      	ldr	r0, [r4, #0]
 8000e54:	f001 faf8 	bl	8002448 <USB_ReadInterrupts>
 8000e58:	0582      	lsls	r2, r0, #22
 8000e5a:	f100 80f1 	bmi.w	8001040 <HAL_PCD_IRQHandler+0x25c>
 8000e5e:	6820      	ldr	r0, [r4, #0]
 8000e60:	f001 faf2 	bl	8002448 <USB_ReadInterrupts>
 8000e64:	05c3      	lsls	r3, r0, #23
 8000e66:	d508      	bpl.n	8000e7a <HAL_PCD_IRQHandler+0x96>
 8000e68:	6822      	ldr	r2, [r4, #0]
 8000e6a:	f8b2 3044 	ldrh.w	r3, [r2, #68]	; 0x44
 8000e6e:	f423 7380 	bic.w	r3, r3, #256	; 0x100
 8000e72:	041b      	lsls	r3, r3, #16
 8000e74:	0c1b      	lsrs	r3, r3, #16
 8000e76:	f8a2 3044 	strh.w	r3, [r2, #68]	; 0x44
 8000e7a:	e8bd 8ff8 	ldmia.w	sp!, {r3, r4, r5, r6, r7, r8, r9, sl, fp, pc}
 8000e7e:	f8df a414 	ldr.w	sl, [pc, #1044]	; 8001294 <HAL_PCD_IRQHandler+0x4b0>
 8000e82:	f8df b414 	ldr.w	fp, [pc, #1044]	; 8001298 <HAL_PCD_IRQHandler+0x4b4>
 8000e86:	f8b2 3044 	ldrh.w	r3, [r2, #68]	; 0x44
 8000e8a:	041f      	lsls	r7, r3, #16
 8000e8c:	d5b3      	bpl.n	8000df6 <HAL_PCD_IRQHandler+0x12>
 8000e8e:	f8b2 1044 	ldrh.w	r1, [r2, #68]	; 0x44
 8000e92:	b289      	uxth	r1, r1
 8000e94:	f011 050f 	ands.w	r5, r1, #15
 8000e98:	d157      	bne.n	8000f4a <HAL_PCD_IRQHandler+0x166>
 8000e9a:	f011 0110 	ands.w	r1, r1, #16
 8000e9e:	8813      	ldrh	r3, [r2, #0]
 8000ea0:	f000 813e 	beq.w	8001120 <HAL_PCD_IRQHandler+0x33c>
 8000ea4:	b29b      	uxth	r3, r3
 8000ea6:	f413 6500 	ands.w	r5, r3, #2048	; 0x800
 8000eaa:	f040 817a 	bne.w	80011a2 <HAL_PCD_IRQHandler+0x3be>
 8000eae:	041b      	lsls	r3, r3, #16
 8000eb0:	d5e9      	bpl.n	8000e86 <HAL_PCD_IRQHandler+0xa2>
 8000eb2:	f640 738f 	movw	r3, #3983	; 0xf8f
 8000eb6:	8811      	ldrh	r1, [r2, #0]
 8000eb8:	400b      	ands	r3, r1
 8000eba:	f043 0380 	orr.w	r3, r3, #128	; 0x80
 8000ebe:	8013      	strh	r3, [r2, #0]
 8000ec0:	f8b2 3050 	ldrh.w	r3, [r2, #80]	; 0x50
 8000ec4:	f894 1128 	ldrb.w	r1, [r4, #296]	; 0x128
 8000ec8:	eb03 03c1 	add.w	r3, r3, r1, lsl #3
 8000ecc:	eb02 0343 	add.w	r3, r2, r3, lsl #1
 8000ed0:	f8b3 340c 	ldrh.w	r3, [r3, #1036]	; 0x40c
 8000ed4:	f3c3 0309 	ubfx	r3, r3, #0, #10
 8000ed8:	f8c4 3144 	str.w	r3, [r4, #324]	; 0x144
 8000edc:	b19b      	cbz	r3, 8000f06 <HAL_PCD_IRQHandler+0x122>
 8000ede:	f8d4 113c 	ldr.w	r1, [r4, #316]	; 0x13c
 8000ee2:	b181      	cbz	r1, 8000f06 <HAL_PCD_IRQHandler+0x122>
 8000ee4:	4610      	mov	r0, r2
 8000ee6:	f8b4 212e 	ldrh.w	r2, [r4, #302]	; 0x12e
 8000eea:	f001 fab3 	bl	8002454 <USB_ReadPMA>
 8000eee:	f8d4 313c 	ldr.w	r3, [r4, #316]	; 0x13c
 8000ef2:	f8d4 2144 	ldr.w	r2, [r4, #324]	; 0x144
 8000ef6:	4629      	mov	r1, r5
 8000ef8:	4413      	add	r3, r2
 8000efa:	f8c4 313c 	str.w	r3, [r4, #316]	; 0x13c
 8000efe:	4620      	mov	r0, r4
 8000f00:	f002 fe22 	bl	8003b48 <HAL_PCD_DataOutStageCallback>
 8000f04:	6822      	ldr	r2, [r4, #0]
 8000f06:	f8b2 3050 	ldrh.w	r3, [r2, #80]	; 0x50
 8000f0a:	f8d4 1138 	ldr.w	r1, [r4, #312]	; 0x138
 8000f0e:	b29b      	uxth	r3, r3
 8000f10:	f202 400c 	addw	r0, r2, #1036	; 0x40c
 8000f14:	2900      	cmp	r1, #0
 8000f16:	f040 8198 	bne.w	800124a <HAL_PCD_IRQHandler+0x466>
 8000f1a:	5ac1      	ldrh	r1, [r0, r3]
 8000f1c:	f421 41f8 	bic.w	r1, r1, #31744	; 0x7c00
 8000f20:	0409      	lsls	r1, r1, #16
 8000f22:	0c09      	lsrs	r1, r1, #16
 8000f24:	52c1      	strh	r1, [r0, r3]
 8000f26:	5ac1      	ldrh	r1, [r0, r3]
 8000f28:	ea6f 4141 	mvn.w	r1, r1, lsl #17
 8000f2c:	ea6f 4151 	mvn.w	r1, r1, lsr #17
 8000f30:	b289      	uxth	r1, r1
 8000f32:	52c1      	strh	r1, [r0, r3]
 8000f34:	8811      	ldrh	r1, [r2, #0]
 8000f36:	4bd6      	ldr	r3, [pc, #856]	; (8001290 <HAL_PCD_IRQHandler+0x4ac>)
 8000f38:	400b      	ands	r3, r1
 8000f3a:	f483 5340 	eor.w	r3, r3, #12288	; 0x3000
 8000f3e:	f443 4300 	orr.w	r3, r3, #32768	; 0x8000
 8000f42:	f043 0380 	orr.w	r3, r3, #128	; 0x80
 8000f46:	8013      	strh	r3, [r2, #0]
 8000f48:	e79d      	b.n	8000e86 <HAL_PCD_IRQHandler+0xa2>
 8000f4a:	f832 6025 	ldrh.w	r6, [r2, r5, lsl #2]
 8000f4e:	b2b6      	uxth	r6, r6
 8000f50:	0431      	lsls	r1, r6, #16
 8000f52:	d426      	bmi.n	8000fa2 <HAL_PCD_IRQHandler+0x1be>
 8000f54:	0633      	lsls	r3, r6, #24
 8000f56:	d596      	bpl.n	8000e86 <HAL_PCD_IRQHandler+0xa2>
 8000f58:	f832 1025 	ldrh.w	r1, [r2, r5, lsl #2]
 8000f5c:	eb04 1345 	add.w	r3, r4, r5, lsl #5
 8000f60:	ea0a 0101 	and.w	r1, sl, r1
 8000f64:	f441 4100 	orr.w	r1, r1, #32768	; 0x8000
 8000f68:	f822 1025 	strh.w	r1, [r2, r5, lsl #2]
 8000f6c:	f8b2 1050 	ldrh.w	r1, [r2, #80]	; 0x50
 8000f70:	f893 5028 	ldrb.w	r5, [r3, #40]	; 0x28
 8000f74:	6bd8      	ldr	r0, [r3, #60]	; 0x3c
 8000f76:	eb01 01c5 	add.w	r1, r1, r5, lsl #3
 8000f7a:	eb02 0141 	add.w	r1, r2, r1, lsl #1
 8000f7e:	f8b1 1404 	ldrh.w	r1, [r1, #1028]	; 0x404
 8000f82:	6c1d      	ldr	r5, [r3, #64]	; 0x40
 8000f84:	f3c1 0109 	ubfx	r1, r1, #0, #10
 8000f88:	1846      	adds	r6, r0, r1
 8000f8a:	6459      	str	r1, [r3, #68]	; 0x44
 8000f8c:	63de      	str	r6, [r3, #60]	; 0x3c
 8000f8e:	2d00      	cmp	r5, #0
 8000f90:	f040 80ef 	bne.w	8001172 <HAL_PCD_IRQHandler+0x38e>
 8000f94:	f893 1028 	ldrb.w	r1, [r3, #40]	; 0x28
 8000f98:	4620      	mov	r0, r4
 8000f9a:	f002 fddd 	bl	8003b58 <HAL_PCD_DataInStageCallback>
 8000f9e:	6822      	ldr	r2, [r4, #0]
 8000fa0:	e771      	b.n	8000e86 <HAL_PCD_IRQHandler+0xa2>
 8000fa2:	f640 738f 	movw	r3, #3983	; 0xf8f
 8000fa6:	f832 1025 	ldrh.w	r1, [r2, r5, lsl #2]
 8000faa:	016f      	lsls	r7, r5, #5
 8000fac:	400b      	ands	r3, r1
 8000fae:	f043 0380 	orr.w	r3, r3, #128	; 0x80
 8000fb2:	f822 3025 	strh.w	r3, [r2, r5, lsl #2]
 8000fb6:	eb04 0907 	add.w	r9, r4, r7
 8000fba:	f899 3134 	ldrb.w	r3, [r9, #308]	; 0x134
 8000fbe:	f502 6080 	add.w	r0, r2, #1024	; 0x400
 8000fc2:	2b00      	cmp	r3, #0
 8000fc4:	f000 810f 	beq.w	80011e6 <HAL_PCD_IRQHandler+0x402>
 8000fc8:	f899 3128 	ldrb.w	r3, [r9, #296]	; 0x128
 8000fcc:	f832 c023 	ldrh.w	ip, [r2, r3, lsl #2]
 8000fd0:	eb02 0183 	add.w	r1, r2, r3, lsl #2
 8000fd4:	f41c 4f80 	tst.w	ip, #16384	; 0x4000
 8000fd8:	f8b2 c050 	ldrh.w	ip, [r2, #80]	; 0x50
 8000fdc:	ea4f 03c3 	mov.w	r3, r3, lsl #3
 8000fe0:	4463      	add	r3, ip
 8000fe2:	f000 811b 	beq.w	800121c <HAL_PCD_IRQHandler+0x438>
 8000fe6:	3302      	adds	r3, #2
 8000fe8:	f830 8013 	ldrh.w	r8, [r0, r3, lsl #1]
 8000fec:	f3c8 0809 	ubfx	r8, r8, #0, #10
 8000ff0:	f1b8 0f00 	cmp.w	r8, #0
 8000ff4:	f040 815d 	bne.w	80012b2 <HAL_PCD_IRQHandler+0x4ce>
 8000ff8:	880b      	ldrh	r3, [r1, #0]
 8000ffa:	ea0b 0303 	and.w	r3, fp, r3
 8000ffe:	f443 4300 	orr.w	r3, r3, #32768	; 0x8000
 8001002:	f043 03c0 	orr.w	r3, r3, #192	; 0xc0
 8001006:	800b      	strh	r3, [r1, #0]
 8001008:	4427      	add	r7, r4
 800100a:	f8d7 2144 	ldr.w	r2, [r7, #324]	; 0x144
 800100e:	f8d7 313c 	ldr.w	r3, [r7, #316]	; 0x13c
 8001012:	f8d7 0140 	ldr.w	r0, [r7, #320]	; 0x140
 8001016:	4442      	add	r2, r8
 8001018:	4443      	add	r3, r8
 800101a:	f8c7 2144 	str.w	r2, [r7, #324]	; 0x144
 800101e:	f8c7 313c 	str.w	r3, [r7, #316]	; 0x13c
 8001022:	2800      	cmp	r0, #0
 8001024:	f000 80f7 	beq.w	8001216 <HAL_PCD_IRQHandler+0x432>
 8001028:	f8d7 2138 	ldr.w	r2, [r7, #312]	; 0x138
 800102c:	f897 1128 	ldrb.w	r1, [r7, #296]	; 0x128
 8001030:	4590      	cmp	r8, r2
 8001032:	f080 8114 	bcs.w	800125e <HAL_PCD_IRQHandler+0x47a>
 8001036:	4620      	mov	r0, r4
 8001038:	f002 fd86 	bl	8003b48 <HAL_PCD_DataOutStageCallback>
 800103c:	6822      	ldr	r2, [r4, #0]
 800103e:	e789      	b.n	8000f54 <HAL_PCD_IRQHandler+0x170>
 8001040:	6822      	ldr	r2, [r4, #0]
 8001042:	4620      	mov	r0, r4
 8001044:	f8b2 3044 	ldrh.w	r3, [r2, #68]	; 0x44
 8001048:	f423 7300 	bic.w	r3, r3, #512	; 0x200
 800104c:	041b      	lsls	r3, r3, #16
 800104e:	0c1b      	lsrs	r3, r3, #16
 8001050:	f8a2 3044 	strh.w	r3, [r2, #68]	; 0x44
 8001054:	f002 fd88 	bl	8003b68 <HAL_PCD_SOFCallback>
 8001058:	e701      	b.n	8000e5e <HAL_PCD_IRQHandler+0x7a>
 800105a:	6823      	ldr	r3, [r4, #0]
 800105c:	f8b3 2040 	ldrh.w	r2, [r3, #64]	; 0x40
 8001060:	4618      	mov	r0, r3
 8001062:	f042 0208 	orr.w	r2, r2, #8
 8001066:	f8a3 2040 	strh.w	r2, [r3, #64]	; 0x40
 800106a:	f8b3 2044 	ldrh.w	r2, [r3, #68]	; 0x44
 800106e:	f422 6200 	bic.w	r2, r2, #2048	; 0x800
 8001072:	0412      	lsls	r2, r2, #16
 8001074:	0c12      	lsrs	r2, r2, #16
 8001076:	f8a3 2044 	strh.w	r2, [r3, #68]	; 0x44
 800107a:	f8b3 2040 	ldrh.w	r2, [r3, #64]	; 0x40
 800107e:	f042 0204 	orr.w	r2, r2, #4
 8001082:	f8a3 2040 	strh.w	r2, [r3, #64]	; 0x40
 8001086:	f001 f9df 	bl	8002448 <USB_ReadInterrupts>
 800108a:	04c1      	lsls	r1, r0, #19
 800108c:	d508      	bpl.n	80010a0 <HAL_PCD_IRQHandler+0x2bc>
 800108e:	6822      	ldr	r2, [r4, #0]
 8001090:	f8b2 3044 	ldrh.w	r3, [r2, #68]	; 0x44
 8001094:	f423 5380 	bic.w	r3, r3, #4096	; 0x1000
 8001098:	041b      	lsls	r3, r3, #16
 800109a:	0c1b      	lsrs	r3, r3, #16
 800109c:	f8a2 3044 	strh.w	r3, [r2, #68]	; 0x44
 80010a0:	4620      	mov	r0, r4
 80010a2:	f002 fd77 	bl	8003b94 <HAL_PCD_SuspendCallback>
 80010a6:	e6d4      	b.n	8000e52 <HAL_PCD_IRQHandler+0x6e>
 80010a8:	6822      	ldr	r2, [r4, #0]
 80010aa:	4620      	mov	r0, r4
 80010ac:	f8b2 3040 	ldrh.w	r3, [r2, #64]	; 0x40
 80010b0:	f023 0304 	bic.w	r3, r3, #4
 80010b4:	041b      	lsls	r3, r3, #16
 80010b6:	0c1b      	lsrs	r3, r3, #16
 80010b8:	f8a2 3040 	strh.w	r3, [r2, #64]	; 0x40
 80010bc:	f8b2 3040 	ldrh.w	r3, [r2, #64]	; 0x40
 80010c0:	f023 0308 	bic.w	r3, r3, #8
 80010c4:	041b      	lsls	r3, r3, #16
 80010c6:	0c1b      	lsrs	r3, r3, #16
 80010c8:	f8a2 3040 	strh.w	r3, [r2, #64]	; 0x40
 80010cc:	f002 fd72 	bl	8003bb4 <HAL_PCD_ResumeCallback>
 80010d0:	6820      	ldr	r0, [r4, #0]
 80010d2:	f8b0 3044 	ldrh.w	r3, [r0, #68]	; 0x44
 80010d6:	f423 5380 	bic.w	r3, r3, #4096	; 0x1000
 80010da:	041b      	lsls	r3, r3, #16
 80010dc:	0c1b      	lsrs	r3, r3, #16
 80010de:	f8a0 3044 	strh.w	r3, [r0, #68]	; 0x44
 80010e2:	e6b1      	b.n	8000e48 <HAL_PCD_IRQHandler+0x64>
 80010e4:	6822      	ldr	r2, [r4, #0]
 80010e6:	4620      	mov	r0, r4
 80010e8:	f8b2 3044 	ldrh.w	r3, [r2, #68]	; 0x44
 80010ec:	f423 6380 	bic.w	r3, r3, #1024	; 0x400
 80010f0:	041b      	lsls	r3, r3, #16
 80010f2:	0c1b      	lsrs	r3, r3, #16
 80010f4:	f8a2 3044 	strh.w	r3, [r2, #68]	; 0x44
 80010f8:	f002 fd3a 	bl	8003b70 <HAL_PCD_ResetCallback>
 80010fc:	f894 3228 	ldrb.w	r3, [r4, #552]	; 0x228
 8001100:	2b01      	cmp	r3, #1
 8001102:	f43f ae7e 	beq.w	8000e02 <HAL_PCD_IRQHandler+0x1e>
 8001106:	2500      	movs	r5, #0
 8001108:	2301      	movs	r3, #1
 800110a:	f884 5024 	strb.w	r5, [r4, #36]	; 0x24
 800110e:	f884 3228 	strb.w	r3, [r4, #552]	; 0x228
 8001112:	4629      	mov	r1, r5
 8001114:	6820      	ldr	r0, [r4, #0]
 8001116:	f001 f98d 	bl	8002434 <USB_SetDevAddress>
 800111a:	f884 5228 	strb.w	r5, [r4, #552]	; 0x228
 800111e:	e670      	b.n	8000e02 <HAL_PCD_IRQHandler+0x1e>
 8001120:	ea0a 0303 	and.w	r3, sl, r3
 8001124:	f443 4300 	orr.w	r3, r3, #32768	; 0x8000
 8001128:	8013      	strh	r3, [r2, #0]
 800112a:	f8b2 3050 	ldrh.w	r3, [r2, #80]	; 0x50
 800112e:	f894 0028 	ldrb.w	r0, [r4, #40]	; 0x28
 8001132:	6be5      	ldr	r5, [r4, #60]	; 0x3c
 8001134:	eb03 03c0 	add.w	r3, r3, r0, lsl #3
 8001138:	eb02 0243 	add.w	r2, r2, r3, lsl #1
 800113c:	f8b2 3404 	ldrh.w	r3, [r2, #1028]	; 0x404
 8001140:	4620      	mov	r0, r4
 8001142:	f3c3 0309 	ubfx	r3, r3, #0, #10
 8001146:	441d      	add	r5, r3
 8001148:	6463      	str	r3, [r4, #68]	; 0x44
 800114a:	63e5      	str	r5, [r4, #60]	; 0x3c
 800114c:	f002 fd04 	bl	8003b58 <HAL_PCD_DataInStageCallback>
 8001150:	f894 3024 	ldrb.w	r3, [r4, #36]	; 0x24
 8001154:	b31b      	cbz	r3, 800119e <HAL_PCD_IRQHandler+0x3ba>
 8001156:	6c23      	ldr	r3, [r4, #64]	; 0x40
 8001158:	6822      	ldr	r2, [r4, #0]
 800115a:	2b00      	cmp	r3, #0
 800115c:	f47f ae93 	bne.w	8000e86 <HAL_PCD_IRQHandler+0xa2>
 8001160:	f894 1024 	ldrb.w	r1, [r4, #36]	; 0x24
 8001164:	f041 0180 	orr.w	r1, r1, #128	; 0x80
 8001168:	f8a2 104c 	strh.w	r1, [r2, #76]	; 0x4c
 800116c:	f884 3024 	strb.w	r3, [r4, #36]	; 0x24
 8001170:	e689      	b.n	8000e86 <HAL_PCD_IRQHandler+0xa2>
 8001172:	f04f 0c00 	mov.w	ip, #0
 8001176:	2701      	movs	r7, #1
 8001178:	f893 3028 	ldrb.w	r3, [r3, #40]	; 0x28
 800117c:	4610      	mov	r0, r2
 800117e:	f003 0207 	and.w	r2, r3, #7
 8001182:	0151      	lsls	r1, r2, #5
 8001184:	1863      	adds	r3, r4, r1
 8001186:	3128      	adds	r1, #40	; 0x28
 8001188:	f883 2028 	strb.w	r2, [r3, #40]	; 0x28
 800118c:	e9c3 650f 	strd	r6, r5, [r3, #60]	; 0x3c
 8001190:	4421      	add	r1, r4
 8001192:	f8c3 c044 	str.w	ip, [r3, #68]	; 0x44
 8001196:	f883 7029 	strb.w	r7, [r3, #41]	; 0x29
 800119a:	f000 ffad 	bl	80020f8 <USB_EPStartXfer>
 800119e:	6822      	ldr	r2, [r4, #0]
 80011a0:	e671      	b.n	8000e86 <HAL_PCD_IRQHandler+0xa2>
 80011a2:	f8b2 3050 	ldrh.w	r3, [r2, #80]	; 0x50
 80011a6:	f894 1128 	ldrb.w	r1, [r4, #296]	; 0x128
 80011aa:	4610      	mov	r0, r2
 80011ac:	eb03 03c1 	add.w	r3, r3, r1, lsl #3
 80011b0:	eb02 0243 	add.w	r2, r2, r3, lsl #1
 80011b4:	f8b2 340c 	ldrh.w	r3, [r2, #1036]	; 0x40c
 80011b8:	f504 710c 	add.w	r1, r4, #560	; 0x230
 80011bc:	f3c3 0309 	ubfx	r3, r3, #0, #10
 80011c0:	f8b4 212e 	ldrh.w	r2, [r4, #302]	; 0x12e
 80011c4:	f8c4 3144 	str.w	r3, [r4, #324]	; 0x144
 80011c8:	f001 f944 	bl	8002454 <USB_ReadPMA>
 80011cc:	f640 738f 	movw	r3, #3983	; 0xf8f
 80011d0:	6822      	ldr	r2, [r4, #0]
 80011d2:	4620      	mov	r0, r4
 80011d4:	8811      	ldrh	r1, [r2, #0]
 80011d6:	400b      	ands	r3, r1
 80011d8:	f043 0380 	orr.w	r3, r3, #128	; 0x80
 80011dc:	8013      	strh	r3, [r2, #0]
 80011de:	f002 fcad 	bl	8003b3c <HAL_PCD_SetupStageCallback>
 80011e2:	6822      	ldr	r2, [r4, #0]
 80011e4:	e64f      	b.n	8000e86 <HAL_PCD_IRQHandler+0xa2>
 80011e6:	f8b2 3050 	ldrh.w	r3, [r2, #80]	; 0x50
 80011ea:	f899 1128 	ldrb.w	r1, [r9, #296]	; 0x128
 80011ee:	3306      	adds	r3, #6
 80011f0:	eb03 03c1 	add.w	r3, r3, r1, lsl #3
 80011f4:	f830 8013 	ldrh.w	r8, [r0, r3, lsl #1]
 80011f8:	f3c8 0809 	ubfx	r8, r8, #0, #10
 80011fc:	f1b8 0f00 	cmp.w	r8, #0
 8001200:	f43f af02 	beq.w	8001008 <HAL_PCD_IRQHandler+0x224>
 8001204:	4610      	mov	r0, r2
 8001206:	4643      	mov	r3, r8
 8001208:	f8b9 212e 	ldrh.w	r2, [r9, #302]	; 0x12e
 800120c:	f8d9 113c 	ldr.w	r1, [r9, #316]	; 0x13c
 8001210:	f001 f920 	bl	8002454 <USB_ReadPMA>
 8001214:	e6f8      	b.n	8001008 <HAL_PCD_IRQHandler+0x224>
 8001216:	f897 1128 	ldrb.w	r1, [r7, #296]	; 0x128
 800121a:	e70c      	b.n	8001036 <HAL_PCD_IRQHandler+0x252>
 800121c:	3306      	adds	r3, #6
 800121e:	f830 8013 	ldrh.w	r8, [r0, r3, lsl #1]
 8001222:	f3c8 0809 	ubfx	r8, r8, #0, #10
 8001226:	f1b8 0f00 	cmp.w	r8, #0
 800122a:	f43f aee5 	beq.w	8000ff8 <HAL_PCD_IRQHandler+0x214>
 800122e:	4643      	mov	r3, r8
 8001230:	4610      	mov	r0, r2
 8001232:	f8b9 2132 	ldrh.w	r2, [r9, #306]	; 0x132
 8001236:	f8d9 113c 	ldr.w	r1, [r9, #316]	; 0x13c
 800123a:	f001 f90b 	bl	8002454 <USB_ReadPMA>
 800123e:	f899 3128 	ldrb.w	r3, [r9, #296]	; 0x128
 8001242:	6821      	ldr	r1, [r4, #0]
 8001244:	eb01 0183 	add.w	r1, r1, r3, lsl #2
 8001248:	e6d6      	b.n	8000ff8 <HAL_PCD_IRQHandler+0x214>
 800124a:	293e      	cmp	r1, #62	; 0x3e
 800124c:	d826      	bhi.n	800129c <HAL_PCD_IRQHandler+0x4b8>
 800124e:	084d      	lsrs	r5, r1, #1
 8001250:	07cf      	lsls	r7, r1, #31
 8001252:	bf48      	it	mi
 8001254:	3501      	addmi	r5, #1
 8001256:	02ad      	lsls	r5, r5, #10
 8001258:	b2ad      	uxth	r5, r5
 800125a:	52c5      	strh	r5, [r0, r3]
 800125c:	e66a      	b.n	8000f34 <HAL_PCD_IRQHandler+0x150>
 800125e:	f04f 0c00 	mov.w	ip, #0
 8001262:	f001 0107 	and.w	r1, r1, #7
 8001266:	014f      	lsls	r7, r1, #5
 8001268:	19e2      	adds	r2, r4, r7
 800126a:	f507 7794 	add.w	r7, r7, #296	; 0x128
 800126e:	f882 1128 	strb.w	r1, [r2, #296]	; 0x128
 8001272:	f8c2 0140 	str.w	r0, [r2, #320]	; 0x140
 8001276:	f8c2 313c 	str.w	r3, [r2, #316]	; 0x13c
 800127a:	f8c2 c144 	str.w	ip, [r2, #324]	; 0x144
 800127e:	f882 c129 	strb.w	ip, [r2, #297]	; 0x129
 8001282:	19e1      	adds	r1, r4, r7
 8001284:	6820      	ldr	r0, [r4, #0]
 8001286:	f000 ff37 	bl	80020f8 <USB_EPStartXfer>
 800128a:	6822      	ldr	r2, [r4, #0]
 800128c:	e662      	b.n	8000f54 <HAL_PCD_IRQHandler+0x170>
 800128e:	bf00      	nop
 8001290:	ffffbf8f 	.word	0xffffbf8f
 8001294:	ffff8f0f 	.word	0xffff8f0f
 8001298:	ffff8f8f 	.word	0xffff8f8f
 800129c:	094d      	lsrs	r5, r1, #5
 800129e:	06ce      	lsls	r6, r1, #27
 80012a0:	4906      	ldr	r1, [pc, #24]	; (80012bc <HAL_PCD_IRQHandler+0x4d8>)
 80012a2:	bf08      	it	eq
 80012a4:	f105 35ff 	addeq.w	r5, r5, #4294967295
 80012a8:	ea41 2585 	orr.w	r5, r1, r5, lsl #10
 80012ac:	b2ad      	uxth	r5, r5
 80012ae:	52c5      	strh	r5, [r0, r3]
 80012b0:	e640      	b.n	8000f34 <HAL_PCD_IRQHandler+0x150>
 80012b2:	4610      	mov	r0, r2
 80012b4:	4643      	mov	r3, r8
 80012b6:	f8b9 2130 	ldrh.w	r2, [r9, #304]	; 0x130
 80012ba:	e7bc      	b.n	8001236 <HAL_PCD_IRQHandler+0x452>
 80012bc:	ffff8000 	.word	0xffff8000

080012c0 <HAL_PCD_SetAddress>:
 80012c0:	f890 2228 	ldrb.w	r2, [r0, #552]	; 0x228
 80012c4:	2a01      	cmp	r2, #1
 80012c6:	d00d      	beq.n	80012e4 <HAL_PCD_SetAddress+0x24>
 80012c8:	b510      	push	{r4, lr}
 80012ca:	4604      	mov	r4, r0
 80012cc:	2201      	movs	r2, #1
 80012ce:	f884 1024 	strb.w	r1, [r4, #36]	; 0x24
 80012d2:	f880 2228 	strb.w	r2, [r0, #552]	; 0x228
 80012d6:	6800      	ldr	r0, [r0, #0]
 80012d8:	f001 f8ac 	bl	8002434 <USB_SetDevAddress>
 80012dc:	2000      	movs	r0, #0
 80012de:	f884 0228 	strb.w	r0, [r4, #552]	; 0x228
 80012e2:	bd10      	pop	{r4, pc}
 80012e4:	2002      	movs	r0, #2
 80012e6:	4770      	bx	lr

080012e8 <HAL_PCD_EP_Open>:
 80012e8:	b5f8      	push	{r3, r4, r5, r6, r7, lr}
 80012ea:	f001 0507 	and.w	r5, r1, #7
 80012ee:	0609      	lsls	r1, r1, #24
 80012f0:	ea4f 1445 	mov.w	r4, r5, lsl #5
 80012f4:	d41f      	bmi.n	8001336 <HAL_PCD_EP_Open+0x4e>
 80012f6:	2700      	movs	r7, #0
 80012f8:	1906      	adds	r6, r0, r4
 80012fa:	f504 7194 	add.w	r1, r4, #296	; 0x128
 80012fe:	f886 7129 	strb.w	r7, [r6, #297]	; 0x129
 8001302:	4401      	add	r1, r0
 8001304:	784c      	ldrb	r4, [r1, #1]
 8001306:	700d      	strb	r5, [r1, #0]
 8001308:	610a      	str	r2, [r1, #16]
 800130a:	70cb      	strb	r3, [r1, #3]
 800130c:	b104      	cbz	r4, 8001310 <HAL_PCD_EP_Open+0x28>
 800130e:	81cd      	strh	r5, [r1, #14]
 8001310:	2b02      	cmp	r3, #2
 8001312:	bf04      	itt	eq
 8001314:	2300      	moveq	r3, #0
 8001316:	710b      	strbeq	r3, [r1, #4]
 8001318:	f890 3228 	ldrb.w	r3, [r0, #552]	; 0x228
 800131c:	2b01      	cmp	r3, #1
 800131e:	d012      	beq.n	8001346 <HAL_PCD_EP_Open+0x5e>
 8001320:	2301      	movs	r3, #1
 8001322:	4604      	mov	r4, r0
 8001324:	f880 3228 	strb.w	r3, [r0, #552]	; 0x228
 8001328:	6800      	ldr	r0, [r0, #0]
 800132a:	f000 fc87 	bl	8001c3c <USB_ActivateEndpoint>
 800132e:	2000      	movs	r0, #0
 8001330:	f884 0228 	strb.w	r0, [r4, #552]	; 0x228
 8001334:	bdf8      	pop	{r3, r4, r5, r6, r7, pc}
 8001336:	2701      	movs	r7, #1
 8001338:	1906      	adds	r6, r0, r4
 800133a:	f104 0128 	add.w	r1, r4, #40	; 0x28
 800133e:	f886 7029 	strb.w	r7, [r6, #41]	; 0x29
 8001342:	4401      	add	r1, r0
 8001344:	e7de      	b.n	8001304 <HAL_PCD_EP_Open+0x1c>
 8001346:	2002      	movs	r0, #2
 8001348:	bdf8      	pop	{r3, r4, r5, r6, r7, pc}
 800134a:	bf00      	nop

0800134c <HAL_PCD_EP_Close>:
 800134c:	f001 0207 	and.w	r2, r1, #7
 8001350:	0609      	lsls	r1, r1, #24
 8001352:	b510      	push	{r4, lr}
 8001354:	ea4f 1342 	mov.w	r3, r2, lsl #5
 8001358:	d416      	bmi.n	8001388 <HAL_PCD_EP_Close+0x3c>
 800135a:	2400      	movs	r4, #0
 800135c:	18c1      	adds	r1, r0, r3
 800135e:	f503 7394 	add.w	r3, r3, #296	; 0x128
 8001362:	f881 4129 	strb.w	r4, [r1, #297]	; 0x129
 8001366:	18c1      	adds	r1, r0, r3
 8001368:	700a      	strb	r2, [r1, #0]
 800136a:	f890 3228 	ldrb.w	r3, [r0, #552]	; 0x228
 800136e:	2b01      	cmp	r3, #1
 8001370:	d015      	beq.n	800139e <HAL_PCD_EP_Close+0x52>
 8001372:	2301      	movs	r3, #1
 8001374:	4604      	mov	r4, r0
 8001376:	f880 3228 	strb.w	r3, [r0, #552]	; 0x228
 800137a:	6800      	ldr	r0, [r0, #0]
 800137c:	f000 fde6 	bl	8001f4c <USB_DeactivateEndpoint>
 8001380:	2000      	movs	r0, #0
 8001382:	f884 0228 	strb.w	r0, [r4, #552]	; 0x228
 8001386:	bd10      	pop	{r4, pc}
 8001388:	2401      	movs	r4, #1
 800138a:	18c1      	adds	r1, r0, r3
 800138c:	3328      	adds	r3, #40	; 0x28
 800138e:	f881 4029 	strb.w	r4, [r1, #41]	; 0x29
 8001392:	18c1      	adds	r1, r0, r3
 8001394:	700a      	strb	r2, [r1, #0]
 8001396:	f890 3228 	ldrb.w	r3, [r0, #552]	; 0x228
 800139a:	2b01      	cmp	r3, #1
 800139c:	d1e9      	bne.n	8001372 <HAL_PCD_EP_Close+0x26>
 800139e:	2002      	movs	r0, #2
 80013a0:	bd10      	pop	{r4, pc}
 80013a2:	bf00      	nop

080013a4 <HAL_PCD_EP_Receive>:
 80013a4:	b570      	push	{r4, r5, r6, lr}
 80013a6:	2600      	movs	r6, #0
 80013a8:	f001 0107 	and.w	r1, r1, #7
 80013ac:	014d      	lsls	r5, r1, #5
 80013ae:	1944      	adds	r4, r0, r5
 80013b0:	f505 7594 	add.w	r5, r5, #296	; 0x128
 80013b4:	f884 1128 	strb.w	r1, [r4, #296]	; 0x128
 80013b8:	f8c4 213c 	str.w	r2, [r4, #316]	; 0x13c
 80013bc:	1941      	adds	r1, r0, r5
 80013be:	f8c4 3140 	str.w	r3, [r4, #320]	; 0x140
 80013c2:	6800      	ldr	r0, [r0, #0]
 80013c4:	f8c4 6144 	str.w	r6, [r4, #324]	; 0x144
 80013c8:	f884 6129 	strb.w	r6, [r4, #297]	; 0x129
 80013cc:	f000 fe94 	bl	80020f8 <USB_EPStartXfer>
 80013d0:	4630      	mov	r0, r6
 80013d2:	bd70      	pop	{r4, r5, r6, pc}

080013d4 <HAL_PCD_EP_Transmit>:
 80013d4:	b5f8      	push	{r3, r4, r5, r6, r7, lr}
 80013d6:	2600      	movs	r6, #0
 80013d8:	2701      	movs	r7, #1
 80013da:	f001 0107 	and.w	r1, r1, #7
 80013de:	014d      	lsls	r5, r1, #5
 80013e0:	1944      	adds	r4, r0, r5
 80013e2:	3528      	adds	r5, #40	; 0x28
 80013e4:	f884 1028 	strb.w	r1, [r4, #40]	; 0x28
 80013e8:	e9c4 230f 	strd	r2, r3, [r4, #60]	; 0x3c
 80013ec:	1941      	adds	r1, r0, r5
 80013ee:	6800      	ldr	r0, [r0, #0]
 80013f0:	f884 7029 	strb.w	r7, [r4, #41]	; 0x29
 80013f4:	6466      	str	r6, [r4, #68]	; 0x44
 80013f6:	f000 fe7f 	bl	80020f8 <USB_EPStartXfer>
 80013fa:	4630      	mov	r0, r6
 80013fc:	bdf8      	pop	{r3, r4, r5, r6, r7, pc}
 80013fe:	bf00      	nop

08001400 <HAL_PCD_EP_SetStall>:
 8001400:	b538      	push	{r3, r4, r5, lr}
 8001402:	6843      	ldr	r3, [r0, #4]
 8001404:	f001 0507 	and.w	r5, r1, #7
 8001408:	429d      	cmp	r5, r3
 800140a:	d81b      	bhi.n	8001444 <HAL_PCD_EP_SetStall+0x44>
 800140c:	060b      	lsls	r3, r1, #24
 800140e:	d41b      	bmi.n	8001448 <HAL_PCD_EP_SetStall+0x48>
 8001410:	2400      	movs	r4, #0
 8001412:	0149      	lsls	r1, r1, #5
 8001414:	1843      	adds	r3, r0, r1
 8001416:	f883 4129 	strb.w	r4, [r3, #297]	; 0x129
 800141a:	2301      	movs	r3, #1
 800141c:	f501 7294 	add.w	r2, r1, #296	; 0x128
 8001420:	1881      	adds	r1, r0, r2
 8001422:	700d      	strb	r5, [r1, #0]
 8001424:	708b      	strb	r3, [r1, #2]
 8001426:	f890 2228 	ldrb.w	r2, [r0, #552]	; 0x228
 800142a:	429a      	cmp	r2, r3
 800142c:	d01b      	beq.n	8001466 <HAL_PCD_EP_SetStall+0x66>
 800142e:	4604      	mov	r4, r0
 8001430:	f880 3228 	strb.w	r3, [r0, #552]	; 0x228
 8001434:	6800      	ldr	r0, [r0, #0]
 8001436:	f000 ff87 	bl	8002348 <USB_EPSetStall>
 800143a:	b1b5      	cbz	r5, 800146a <HAL_PCD_EP_SetStall+0x6a>
 800143c:	2000      	movs	r0, #0
 800143e:	f884 0228 	strb.w	r0, [r4, #552]	; 0x228
 8001442:	bd38      	pop	{r3, r4, r5, pc}
 8001444:	2001      	movs	r0, #1
 8001446:	bd38      	pop	{r3, r4, r5, pc}
 8001448:	2201      	movs	r2, #1
 800144a:	016b      	lsls	r3, r5, #5
 800144c:	f103 0128 	add.w	r1, r3, #40	; 0x28
 8001450:	4403      	add	r3, r0
 8001452:	f883 2029 	strb.w	r2, [r3, #41]	; 0x29
 8001456:	2301      	movs	r3, #1
 8001458:	4401      	add	r1, r0
 800145a:	700d      	strb	r5, [r1, #0]
 800145c:	708b      	strb	r3, [r1, #2]
 800145e:	f890 2228 	ldrb.w	r2, [r0, #552]	; 0x228
 8001462:	429a      	cmp	r2, r3
 8001464:	d1e3      	bne.n	800142e <HAL_PCD_EP_SetStall+0x2e>
 8001466:	2002      	movs	r0, #2
 8001468:	bd38      	pop	{r3, r4, r5, pc}
 800146a:	f504 710c 	add.w	r1, r4, #560	; 0x230
 800146e:	6820      	ldr	r0, [r4, #0]
 8001470:	f000 ffee 	bl	8002450 <USB_EP0_OutStart>
 8001474:	e7e2      	b.n	800143c <HAL_PCD_EP_SetStall+0x3c>
 8001476:	bf00      	nop

08001478 <HAL_PCD_EP_ClrStall>:
 8001478:	b538      	push	{r3, r4, r5, lr}
 800147a:	6843      	ldr	r3, [r0, #4]
 800147c:	f001 020f 	and.w	r2, r1, #15
 8001480:	429a      	cmp	r2, r3
 8001482:	d81e      	bhi.n	80014c2 <HAL_PCD_EP_ClrStall+0x4a>
 8001484:	f001 0207 	and.w	r2, r1, #7
 8001488:	0609      	lsls	r1, r1, #24
 800148a:	ea4f 1342 	mov.w	r3, r2, lsl #5
 800148e:	d41a      	bmi.n	80014c6 <HAL_PCD_EP_ClrStall+0x4e>
 8001490:	2500      	movs	r5, #0
 8001492:	18c4      	adds	r4, r0, r3
 8001494:	f884 5129 	strb.w	r5, [r4, #297]	; 0x129
 8001498:	2500      	movs	r5, #0
 800149a:	f503 7194 	add.w	r1, r3, #296	; 0x128
 800149e:	4401      	add	r1, r0
 80014a0:	700a      	strb	r2, [r1, #0]
 80014a2:	708d      	strb	r5, [r1, #2]
 80014a4:	f890 3228 	ldrb.w	r3, [r0, #552]	; 0x228
 80014a8:	2b01      	cmp	r3, #1
 80014aa:	d01a      	beq.n	80014e2 <HAL_PCD_EP_ClrStall+0x6a>
 80014ac:	2301      	movs	r3, #1
 80014ae:	4604      	mov	r4, r0
 80014b0:	f880 3228 	strb.w	r3, [r0, #552]	; 0x228
 80014b4:	6800      	ldr	r0, [r0, #0]
 80014b6:	f000 ff69 	bl	800238c <USB_EPClearStall>
 80014ba:	f884 5228 	strb.w	r5, [r4, #552]	; 0x228
 80014be:	4628      	mov	r0, r5
 80014c0:	bd38      	pop	{r3, r4, r5, pc}
 80014c2:	2001      	movs	r0, #1
 80014c4:	bd38      	pop	{r3, r4, r5, pc}
 80014c6:	2501      	movs	r5, #1
 80014c8:	18c4      	adds	r4, r0, r3
 80014ca:	f884 5029 	strb.w	r5, [r4, #41]	; 0x29
 80014ce:	2500      	movs	r5, #0
 80014d0:	f103 0128 	add.w	r1, r3, #40	; 0x28
 80014d4:	4401      	add	r1, r0
 80014d6:	700a      	strb	r2, [r1, #0]
 80014d8:	708d      	strb	r5, [r1, #2]
 80014da:	f890 3228 	ldrb.w	r3, [r0, #552]	; 0x228
 80014de:	2b01      	cmp	r3, #1
 80014e0:	d1e4      	bne.n	80014ac <HAL_PCD_EP_ClrStall+0x34>
 80014e2:	2002      	movs	r0, #2
 80014e4:	bd38      	pop	{r3, r4, r5, pc}
 80014e6:	bf00      	nop

080014e8 <HAL_PCDEx_PMAConfig>:
 80014e8:	f011 0f80 	tst.w	r1, #128	; 0x80
 80014ec:	d00d      	beq.n	800150a <HAL_PCDEx_PMAConfig+0x22>
 80014ee:	f001 0107 	and.w	r1, r1, #7
 80014f2:	eb00 1041 	add.w	r0, r0, r1, lsl #5
 80014f6:	3028      	adds	r0, #40	; 0x28
 80014f8:	b299      	uxth	r1, r3
 80014fa:	b16a      	cbz	r2, 8001518 <HAL_PCDEx_PMAConfig+0x30>
 80014fc:	2201      	movs	r2, #1
 80014fe:	0c1b      	lsrs	r3, r3, #16
 8001500:	8143      	strh	r3, [r0, #10]
 8001502:	8101      	strh	r1, [r0, #8]
 8001504:	7302      	strb	r2, [r0, #12]
 8001506:	2000      	movs	r0, #0
 8001508:	4770      	bx	lr
 800150a:	eb00 1041 	add.w	r0, r0, r1, lsl #5
 800150e:	f500 7094 	add.w	r0, r0, #296	; 0x128
 8001512:	b299      	uxth	r1, r3
 8001514:	2a00      	cmp	r2, #0
 8001516:	d1f1      	bne.n	80014fc <HAL_PCDEx_PMAConfig+0x14>
 8001518:	80c1      	strh	r1, [r0, #6]
 800151a:	7302      	strb	r2, [r0, #12]
 800151c:	2000      	movs	r0, #0
 800151e:	4770      	bx	lr

08001520 <HAL_RCC_OscConfig>:
 8001520:	2800      	cmp	r0, #0
 8001522:	f000 8155 	beq.w	80017d0 <HAL_RCC_OscConfig+0x2b0>
 8001526:	e92d 41f0 	stmdb	sp!, {r4, r5, r6, r7, r8, lr}
 800152a:	6803      	ldr	r3, [r0, #0]
 800152c:	b082      	sub	sp, #8
 800152e:	07dd      	lsls	r5, r3, #31
 8001530:	4604      	mov	r4, r0
 8001532:	d535      	bpl.n	80015a0 <HAL_RCC_OscConfig+0x80>
 8001534:	49a8      	ldr	r1, [pc, #672]	; (80017d8 <HAL_RCC_OscConfig+0x2b8>)
 8001536:	684a      	ldr	r2, [r1, #4]
 8001538:	f002 020c 	and.w	r2, r2, #12
 800153c:	2a04      	cmp	r2, #4
 800153e:	f000 8105 	beq.w	800174c <HAL_RCC_OscConfig+0x22c>
 8001542:	684a      	ldr	r2, [r1, #4]
 8001544:	f002 020c 	and.w	r2, r2, #12
 8001548:	2a08      	cmp	r2, #8
 800154a:	f000 80fb 	beq.w	8001744 <HAL_RCC_OscConfig+0x224>
 800154e:	6863      	ldr	r3, [r4, #4]
 8001550:	f5b3 3f80 	cmp.w	r3, #65536	; 0x10000
 8001554:	d010      	beq.n	8001578 <HAL_RCC_OscConfig+0x58>
 8001556:	2b00      	cmp	r3, #0
 8001558:	f000 8120 	beq.w	800179c <HAL_RCC_OscConfig+0x27c>
 800155c:	f5b3 2fa0 	cmp.w	r3, #327680	; 0x50000
 8001560:	f000 8178 	beq.w	8001854 <HAL_RCC_OscConfig+0x334>
 8001564:	4b9c      	ldr	r3, [pc, #624]	; (80017d8 <HAL_RCC_OscConfig+0x2b8>)
 8001566:	681a      	ldr	r2, [r3, #0]
 8001568:	f422 3280 	bic.w	r2, r2, #65536	; 0x10000
 800156c:	601a      	str	r2, [r3, #0]
 800156e:	681a      	ldr	r2, [r3, #0]
 8001570:	f422 2280 	bic.w	r2, r2, #262144	; 0x40000
 8001574:	601a      	str	r2, [r3, #0]
 8001576:	e004      	b.n	8001582 <HAL_RCC_OscConfig+0x62>
 8001578:	4a97      	ldr	r2, [pc, #604]	; (80017d8 <HAL_RCC_OscConfig+0x2b8>)
 800157a:	6813      	ldr	r3, [r2, #0]
 800157c:	f443 3380 	orr.w	r3, r3, #65536	; 0x10000
 8001580:	6013      	str	r3, [r2, #0]
 8001582:	f7ff fa15 	bl	80009b0 <HAL_GetTick>
 8001586:	4d94      	ldr	r5, [pc, #592]	; (80017d8 <HAL_RCC_OscConfig+0x2b8>)
 8001588:	4606      	mov	r6, r0
 800158a:	e005      	b.n	8001598 <HAL_RCC_OscConfig+0x78>
 800158c:	f7ff fa10 	bl	80009b0 <HAL_GetTick>
 8001590:	1b80      	subs	r0, r0, r6
 8001592:	2864      	cmp	r0, #100	; 0x64
 8001594:	f200 80f5 	bhi.w	8001782 <HAL_RCC_OscConfig+0x262>
 8001598:	682b      	ldr	r3, [r5, #0]
 800159a:	039a      	lsls	r2, r3, #14
 800159c:	d5f6      	bpl.n	800158c <HAL_RCC_OscConfig+0x6c>
 800159e:	6823      	ldr	r3, [r4, #0]
 80015a0:	079f      	lsls	r7, r3, #30
 80015a2:	d44d      	bmi.n	8001640 <HAL_RCC_OscConfig+0x120>
 80015a4:	071a      	lsls	r2, r3, #28
 80015a6:	d522      	bpl.n	80015ee <HAL_RCC_OscConfig+0xce>
 80015a8:	69a3      	ldr	r3, [r4, #24]
 80015aa:	2b00      	cmp	r3, #0
 80015ac:	f000 80ba 	beq.w	8001724 <HAL_RCC_OscConfig+0x204>
 80015b0:	2201      	movs	r2, #1
 80015b2:	4b8a      	ldr	r3, [pc, #552]	; (80017dc <HAL_RCC_OscConfig+0x2bc>)
 80015b4:	4d88      	ldr	r5, [pc, #544]	; (80017d8 <HAL_RCC_OscConfig+0x2b8>)
 80015b6:	601a      	str	r2, [r3, #0]
 80015b8:	f7ff f9fa 	bl	80009b0 <HAL_GetTick>
 80015bc:	4606      	mov	r6, r0
 80015be:	e005      	b.n	80015cc <HAL_RCC_OscConfig+0xac>
 80015c0:	f7ff f9f6 	bl	80009b0 <HAL_GetTick>
 80015c4:	1b80      	subs	r0, r0, r6
 80015c6:	2802      	cmp	r0, #2
 80015c8:	f200 80db 	bhi.w	8001782 <HAL_RCC_OscConfig+0x262>
 80015cc:	6a6b      	ldr	r3, [r5, #36]	; 0x24
 80015ce:	079b      	lsls	r3, r3, #30
 80015d0:	d5f6      	bpl.n	80015c0 <HAL_RCC_OscConfig+0xa0>
 80015d2:	4b83      	ldr	r3, [pc, #524]	; (80017e0 <HAL_RCC_OscConfig+0x2c0>)
 80015d4:	4a83      	ldr	r2, [pc, #524]	; (80017e4 <HAL_RCC_OscConfig+0x2c4>)
 80015d6:	681b      	ldr	r3, [r3, #0]
 80015d8:	fba2 2303 	umull	r2, r3, r2, r3
 80015dc:	0a5b      	lsrs	r3, r3, #9
 80015de:	9301      	str	r3, [sp, #4]
 80015e0:	bf00      	nop
 80015e2:	9b01      	ldr	r3, [sp, #4]
 80015e4:	1e5a      	subs	r2, r3, #1
 80015e6:	9201      	str	r2, [sp, #4]
 80015e8:	2b00      	cmp	r3, #0
 80015ea:	d1f9      	bne.n	80015e0 <HAL_RCC_OscConfig+0xc0>
 80015ec:	6823      	ldr	r3, [r4, #0]
 80015ee:	075d      	lsls	r5, r3, #29
 80015f0:	d569      	bpl.n	80016c6 <HAL_RCC_OscConfig+0x1a6>
 80015f2:	4b79      	ldr	r3, [pc, #484]	; (80017d8 <HAL_RCC_OscConfig+0x2b8>)
 80015f4:	69da      	ldr	r2, [r3, #28]
 80015f6:	00d0      	lsls	r0, r2, #3
 80015f8:	f100 80ec 	bmi.w	80017d4 <HAL_RCC_OscConfig+0x2b4>
 80015fc:	2501      	movs	r5, #1
 80015fe:	69da      	ldr	r2, [r3, #28]
 8001600:	f042 5280 	orr.w	r2, r2, #268435456	; 0x10000000
 8001604:	61da      	str	r2, [r3, #28]
 8001606:	69db      	ldr	r3, [r3, #28]
 8001608:	f003 5380 	and.w	r3, r3, #268435456	; 0x10000000
 800160c:	9300      	str	r3, [sp, #0]
 800160e:	9b00      	ldr	r3, [sp, #0]
 8001610:	4b75      	ldr	r3, [pc, #468]	; (80017e8 <HAL_RCC_OscConfig+0x2c8>)
 8001612:	681a      	ldr	r2, [r3, #0]
 8001614:	05d1      	lsls	r1, r2, #23
 8001616:	f140 80a3 	bpl.w	8001760 <HAL_RCC_OscConfig+0x240>
 800161a:	68e3      	ldr	r3, [r4, #12]
 800161c:	2b01      	cmp	r3, #1
 800161e:	d037      	beq.n	8001690 <HAL_RCC_OscConfig+0x170>
 8001620:	2b00      	cmp	r3, #0
 8001622:	f000 80e7 	beq.w	80017f4 <HAL_RCC_OscConfig+0x2d4>
 8001626:	2b05      	cmp	r3, #5
 8001628:	4b6b      	ldr	r3, [pc, #428]	; (80017d8 <HAL_RCC_OscConfig+0x2b8>)
 800162a:	6a1a      	ldr	r2, [r3, #32]
 800162c:	f000 811f 	beq.w	800186e <HAL_RCC_OscConfig+0x34e>
 8001630:	f022 0201 	bic.w	r2, r2, #1
 8001634:	621a      	str	r2, [r3, #32]
 8001636:	6a1a      	ldr	r2, [r3, #32]
 8001638:	f022 0204 	bic.w	r2, r2, #4
 800163c:	621a      	str	r2, [r3, #32]
 800163e:	e02c      	b.n	800169a <HAL_RCC_OscConfig+0x17a>
 8001640:	4a65      	ldr	r2, [pc, #404]	; (80017d8 <HAL_RCC_OscConfig+0x2b8>)
 8001642:	6851      	ldr	r1, [r2, #4]
 8001644:	f011 0f0c 	tst.w	r1, #12
 8001648:	d061      	beq.n	800170e <HAL_RCC_OscConfig+0x1ee>
 800164a:	6851      	ldr	r1, [r2, #4]
 800164c:	f001 010c 	and.w	r1, r1, #12
 8001650:	2908      	cmp	r1, #8
 8001652:	d059      	beq.n	8001708 <HAL_RCC_OscConfig+0x1e8>
 8001654:	6923      	ldr	r3, [r4, #16]
 8001656:	2b00      	cmp	r3, #0
 8001658:	f000 80eb 	beq.w	8001832 <HAL_RCC_OscConfig+0x312>
 800165c:	2201      	movs	r2, #1
 800165e:	4b63      	ldr	r3, [pc, #396]	; (80017ec <HAL_RCC_OscConfig+0x2cc>)
 8001660:	4d5d      	ldr	r5, [pc, #372]	; (80017d8 <HAL_RCC_OscConfig+0x2b8>)
 8001662:	601a      	str	r2, [r3, #0]
 8001664:	f7ff f9a4 	bl	80009b0 <HAL_GetTick>
 8001668:	4606      	mov	r6, r0
 800166a:	e005      	b.n	8001678 <HAL_RCC_OscConfig+0x158>
 800166c:	f7ff f9a0 	bl	80009b0 <HAL_GetTick>
 8001670:	1b80      	subs	r0, r0, r6
 8001672:	2802      	cmp	r0, #2
 8001674:	f200 8085 	bhi.w	8001782 <HAL_RCC_OscConfig+0x262>
 8001678:	682b      	ldr	r3, [r5, #0]
 800167a:	0798      	lsls	r0, r3, #30
 800167c:	d5f6      	bpl.n	800166c <HAL_RCC_OscConfig+0x14c>
 800167e:	682b      	ldr	r3, [r5, #0]
 8001680:	6962      	ldr	r2, [r4, #20]
 8001682:	f023 03f8 	bic.w	r3, r3, #248	; 0xf8
 8001686:	ea43 03c2 	orr.w	r3, r3, r2, lsl #3
 800168a:	602b      	str	r3, [r5, #0]
 800168c:	6823      	ldr	r3, [r4, #0]
 800168e:	e789      	b.n	80015a4 <HAL_RCC_OscConfig+0x84>
 8001690:	4a51      	ldr	r2, [pc, #324]	; (80017d8 <HAL_RCC_OscConfig+0x2b8>)
 8001692:	6a13      	ldr	r3, [r2, #32]
 8001694:	f043 0301 	orr.w	r3, r3, #1
 8001698:	6213      	str	r3, [r2, #32]
 800169a:	f7ff f989 	bl	80009b0 <HAL_GetTick>
 800169e:	4e4e      	ldr	r6, [pc, #312]	; (80017d8 <HAL_RCC_OscConfig+0x2b8>)
 80016a0:	4680      	mov	r8, r0
 80016a2:	f241 3788 	movw	r7, #5000	; 0x1388
 80016a6:	e005      	b.n	80016b4 <HAL_RCC_OscConfig+0x194>
 80016a8:	f7ff f982 	bl	80009b0 <HAL_GetTick>
 80016ac:	eba0 0008 	sub.w	r0, r0, r8
 80016b0:	42b8      	cmp	r0, r7
 80016b2:	d866      	bhi.n	8001782 <HAL_RCC_OscConfig+0x262>
 80016b4:	6a33      	ldr	r3, [r6, #32]
 80016b6:	079b      	lsls	r3, r3, #30
 80016b8:	d5f6      	bpl.n	80016a8 <HAL_RCC_OscConfig+0x188>
 80016ba:	b125      	cbz	r5, 80016c6 <HAL_RCC_OscConfig+0x1a6>
 80016bc:	4a46      	ldr	r2, [pc, #280]	; (80017d8 <HAL_RCC_OscConfig+0x2b8>)
 80016be:	69d3      	ldr	r3, [r2, #28]
 80016c0:	f023 5380 	bic.w	r3, r3, #268435456	; 0x10000000
 80016c4:	61d3      	str	r3, [r2, #28]
 80016c6:	69e0      	ldr	r0, [r4, #28]
 80016c8:	b1d0      	cbz	r0, 8001700 <HAL_RCC_OscConfig+0x1e0>
 80016ca:	4d43      	ldr	r5, [pc, #268]	; (80017d8 <HAL_RCC_OscConfig+0x2b8>)
 80016cc:	686a      	ldr	r2, [r5, #4]
 80016ce:	f002 020c 	and.w	r2, r2, #12
 80016d2:	2a08      	cmp	r2, #8
 80016d4:	f000 80d3 	beq.w	800187e <HAL_RCC_OscConfig+0x35e>
 80016d8:	2802      	cmp	r0, #2
 80016da:	f04f 0100 	mov.w	r1, #0
 80016de:	4a44      	ldr	r2, [pc, #272]	; (80017f0 <HAL_RCC_OscConfig+0x2d0>)
 80016e0:	f000 80de 	beq.w	80018a0 <HAL_RCC_OscConfig+0x380>
 80016e4:	6011      	str	r1, [r2, #0]
 80016e6:	f7ff f963 	bl	80009b0 <HAL_GetTick>
 80016ea:	462c      	mov	r4, r5
 80016ec:	4605      	mov	r5, r0
 80016ee:	e004      	b.n	80016fa <HAL_RCC_OscConfig+0x1da>
 80016f0:	f7ff f95e 	bl	80009b0 <HAL_GetTick>
 80016f4:	1b40      	subs	r0, r0, r5
 80016f6:	2802      	cmp	r0, #2
 80016f8:	d843      	bhi.n	8001782 <HAL_RCC_OscConfig+0x262>
 80016fa:	6823      	ldr	r3, [r4, #0]
 80016fc:	019b      	lsls	r3, r3, #6
 80016fe:	d4f7      	bmi.n	80016f0 <HAL_RCC_OscConfig+0x1d0>
 8001700:	2000      	movs	r0, #0
 8001702:	b002      	add	sp, #8
 8001704:	e8bd 81f0 	ldmia.w	sp!, {r4, r5, r6, r7, r8, pc}
 8001708:	6852      	ldr	r2, [r2, #4]
 800170a:	03d6      	lsls	r6, r2, #15
 800170c:	d4a2      	bmi.n	8001654 <HAL_RCC_OscConfig+0x134>
 800170e:	4a32      	ldr	r2, [pc, #200]	; (80017d8 <HAL_RCC_OscConfig+0x2b8>)
 8001710:	6812      	ldr	r2, [r2, #0]
 8001712:	0795      	lsls	r5, r2, #30
 8001714:	d539      	bpl.n	800178a <HAL_RCC_OscConfig+0x26a>
 8001716:	6922      	ldr	r2, [r4, #16]
 8001718:	2a01      	cmp	r2, #1
 800171a:	d036      	beq.n	800178a <HAL_RCC_OscConfig+0x26a>
 800171c:	2001      	movs	r0, #1
 800171e:	b002      	add	sp, #8
 8001720:	e8bd 81f0 	ldmia.w	sp!, {r4, r5, r6, r7, r8, pc}
 8001724:	4a2d      	ldr	r2, [pc, #180]	; (80017dc <HAL_RCC_OscConfig+0x2bc>)
 8001726:	4d2c      	ldr	r5, [pc, #176]	; (80017d8 <HAL_RCC_OscConfig+0x2b8>)
 8001728:	6013      	str	r3, [r2, #0]
 800172a:	f7ff f941 	bl	80009b0 <HAL_GetTick>
 800172e:	4606      	mov	r6, r0
 8001730:	e004      	b.n	800173c <HAL_RCC_OscConfig+0x21c>
 8001732:	f7ff f93d 	bl	80009b0 <HAL_GetTick>
 8001736:	1b80      	subs	r0, r0, r6
 8001738:	2802      	cmp	r0, #2
 800173a:	d822      	bhi.n	8001782 <HAL_RCC_OscConfig+0x262>
 800173c:	6a6b      	ldr	r3, [r5, #36]	; 0x24
 800173e:	079f      	lsls	r7, r3, #30
 8001740:	d4f7      	bmi.n	8001732 <HAL_RCC_OscConfig+0x212>
 8001742:	e753      	b.n	80015ec <HAL_RCC_OscConfig+0xcc>
 8001744:	684a      	ldr	r2, [r1, #4]
 8001746:	03d0      	lsls	r0, r2, #15
 8001748:	f57f af01 	bpl.w	800154e <HAL_RCC_OscConfig+0x2e>
 800174c:	4a22      	ldr	r2, [pc, #136]	; (80017d8 <HAL_RCC_OscConfig+0x2b8>)
 800174e:	6812      	ldr	r2, [r2, #0]
 8001750:	0391      	lsls	r1, r2, #14
 8001752:	f57f af25 	bpl.w	80015a0 <HAL_RCC_OscConfig+0x80>
 8001756:	6862      	ldr	r2, [r4, #4]
 8001758:	2a00      	cmp	r2, #0
 800175a:	f47f af21 	bne.w	80015a0 <HAL_RCC_OscConfig+0x80>
 800175e:	e7dd      	b.n	800171c <HAL_RCC_OscConfig+0x1fc>
 8001760:	681a      	ldr	r2, [r3, #0]
 8001762:	461e      	mov	r6, r3
 8001764:	f442 7280 	orr.w	r2, r2, #256	; 0x100
 8001768:	601a      	str	r2, [r3, #0]
 800176a:	f7ff f921 	bl	80009b0 <HAL_GetTick>
 800176e:	4607      	mov	r7, r0
 8001770:	6833      	ldr	r3, [r6, #0]
 8001772:	05da      	lsls	r2, r3, #23
 8001774:	f53f af51 	bmi.w	800161a <HAL_RCC_OscConfig+0xfa>
 8001778:	f7ff f91a 	bl	80009b0 <HAL_GetTick>
 800177c:	1bc0      	subs	r0, r0, r7
 800177e:	2864      	cmp	r0, #100	; 0x64
 8001780:	d9f6      	bls.n	8001770 <HAL_RCC_OscConfig+0x250>
 8001782:	2003      	movs	r0, #3
 8001784:	b002      	add	sp, #8
 8001786:	e8bd 81f0 	ldmia.w	sp!, {r4, r5, r6, r7, r8, pc}
 800178a:	4913      	ldr	r1, [pc, #76]	; (80017d8 <HAL_RCC_OscConfig+0x2b8>)
 800178c:	6960      	ldr	r0, [r4, #20]
 800178e:	680a      	ldr	r2, [r1, #0]
 8001790:	f022 02f8 	bic.w	r2, r2, #248	; 0xf8
 8001794:	ea42 02c0 	orr.w	r2, r2, r0, lsl #3
 8001798:	600a      	str	r2, [r1, #0]
 800179a:	e703      	b.n	80015a4 <HAL_RCC_OscConfig+0x84>
 800179c:	f103 4380 	add.w	r3, r3, #1073741824	; 0x40000000
 80017a0:	f503 3304 	add.w	r3, r3, #135168	; 0x21000
 80017a4:	681a      	ldr	r2, [r3, #0]
 80017a6:	461d      	mov	r5, r3
 80017a8:	f422 3280 	bic.w	r2, r2, #65536	; 0x10000
 80017ac:	601a      	str	r2, [r3, #0]
 80017ae:	681a      	ldr	r2, [r3, #0]
 80017b0:	f422 2280 	bic.w	r2, r2, #262144	; 0x40000
 80017b4:	601a      	str	r2, [r3, #0]
 80017b6:	f7ff f8fb 	bl	80009b0 <HAL_GetTick>
 80017ba:	4606      	mov	r6, r0
 80017bc:	e004      	b.n	80017c8 <HAL_RCC_OscConfig+0x2a8>
 80017be:	f7ff f8f7 	bl	80009b0 <HAL_GetTick>
 80017c2:	1b80      	subs	r0, r0, r6
 80017c4:	2864      	cmp	r0, #100	; 0x64
 80017c6:	d8dc      	bhi.n	8001782 <HAL_RCC_OscConfig+0x262>
 80017c8:	682b      	ldr	r3, [r5, #0]
 80017ca:	039b      	lsls	r3, r3, #14
 80017cc:	d4f7      	bmi.n	80017be <HAL_RCC_OscConfig+0x29e>
 80017ce:	e6e6      	b.n	800159e <HAL_RCC_OscConfig+0x7e>
 80017d0:	2001      	movs	r0, #1
 80017d2:	4770      	bx	lr
 80017d4:	2500      	movs	r5, #0
 80017d6:	e71b      	b.n	8001610 <HAL_RCC_OscConfig+0xf0>
 80017d8:	40021000 	.word	0x40021000
 80017dc:	42420480 	.word	0x42420480
 80017e0:	20000118 	.word	0x20000118
 80017e4:	10624dd3 	.word	0x10624dd3
 80017e8:	40007000 	.word	0x40007000
 80017ec:	42420000 	.word	0x42420000
 80017f0:	42420060 	.word	0x42420060
 80017f4:	f103 4380 	add.w	r3, r3, #1073741824	; 0x40000000
 80017f8:	f503 3304 	add.w	r3, r3, #135168	; 0x21000
 80017fc:	6a1a      	ldr	r2, [r3, #32]
 80017fe:	461e      	mov	r6, r3
 8001800:	f022 0201 	bic.w	r2, r2, #1
 8001804:	621a      	str	r2, [r3, #32]
 8001806:	6a1a      	ldr	r2, [r3, #32]
 8001808:	f241 3888 	movw	r8, #5000	; 0x1388
 800180c:	f022 0204 	bic.w	r2, r2, #4
 8001810:	621a      	str	r2, [r3, #32]
 8001812:	f7ff f8cd 	bl	80009b0 <HAL_GetTick>
 8001816:	4607      	mov	r7, r0
 8001818:	e004      	b.n	8001824 <HAL_RCC_OscConfig+0x304>
 800181a:	f7ff f8c9 	bl	80009b0 <HAL_GetTick>
 800181e:	1bc0      	subs	r0, r0, r7
 8001820:	4540      	cmp	r0, r8
 8001822:	d8ae      	bhi.n	8001782 <HAL_RCC_OscConfig+0x262>
 8001824:	6a33      	ldr	r3, [r6, #32]
 8001826:	0798      	lsls	r0, r3, #30
 8001828:	d4f7      	bmi.n	800181a <HAL_RCC_OscConfig+0x2fa>
 800182a:	2d00      	cmp	r5, #0
 800182c:	f43f af4b 	beq.w	80016c6 <HAL_RCC_OscConfig+0x1a6>
 8001830:	e744      	b.n	80016bc <HAL_RCC_OscConfig+0x19c>
 8001832:	4a34      	ldr	r2, [pc, #208]	; (8001904 <HAL_RCC_OscConfig+0x3e4>)
 8001834:	4d34      	ldr	r5, [pc, #208]	; (8001908 <HAL_RCC_OscConfig+0x3e8>)
 8001836:	6013      	str	r3, [r2, #0]
 8001838:	f7ff f8ba 	bl	80009b0 <HAL_GetTick>
 800183c:	4606      	mov	r6, r0
 800183e:	e004      	b.n	800184a <HAL_RCC_OscConfig+0x32a>
 8001840:	f7ff f8b6 	bl	80009b0 <HAL_GetTick>
 8001844:	1b80      	subs	r0, r0, r6
 8001846:	2802      	cmp	r0, #2
 8001848:	d89b      	bhi.n	8001782 <HAL_RCC_OscConfig+0x262>
 800184a:	682b      	ldr	r3, [r5, #0]
 800184c:	0799      	lsls	r1, r3, #30
 800184e:	d4f7      	bmi.n	8001840 <HAL_RCC_OscConfig+0x320>
 8001850:	6823      	ldr	r3, [r4, #0]
 8001852:	e6a7      	b.n	80015a4 <HAL_RCC_OscConfig+0x84>
 8001854:	f103 4380 	add.w	r3, r3, #1073741824	; 0x40000000
 8001858:	f5a3 333c 	sub.w	r3, r3, #192512	; 0x2f000
 800185c:	681a      	ldr	r2, [r3, #0]
 800185e:	f442 2280 	orr.w	r2, r2, #262144	; 0x40000
 8001862:	601a      	str	r2, [r3, #0]
 8001864:	681a      	ldr	r2, [r3, #0]
 8001866:	f442 3280 	orr.w	r2, r2, #65536	; 0x10000
 800186a:	601a      	str	r2, [r3, #0]
 800186c:	e689      	b.n	8001582 <HAL_RCC_OscConfig+0x62>
 800186e:	f042 0204 	orr.w	r2, r2, #4
 8001872:	621a      	str	r2, [r3, #32]
 8001874:	6a1a      	ldr	r2, [r3, #32]
 8001876:	f042 0201 	orr.w	r2, r2, #1
 800187a:	621a      	str	r2, [r3, #32]
 800187c:	e70d      	b.n	800169a <HAL_RCC_OscConfig+0x17a>
 800187e:	2801      	cmp	r0, #1
 8001880:	f43f af4d 	beq.w	800171e <HAL_RCC_OscConfig+0x1fe>
 8001884:	686b      	ldr	r3, [r5, #4]
 8001886:	6a22      	ldr	r2, [r4, #32]
 8001888:	f403 3180 	and.w	r1, r3, #65536	; 0x10000
 800188c:	4291      	cmp	r1, r2
 800188e:	f47f af45 	bne.w	800171c <HAL_RCC_OscConfig+0x1fc>
 8001892:	6a60      	ldr	r0, [r4, #36]	; 0x24
 8001894:	f403 1370 	and.w	r3, r3, #3932160	; 0x3c0000
 8001898:	1a18      	subs	r0, r3, r0
 800189a:	bf18      	it	ne
 800189c:	2001      	movne	r0, #1
 800189e:	e73e      	b.n	800171e <HAL_RCC_OscConfig+0x1fe>
 80018a0:	6011      	str	r1, [r2, #0]
 80018a2:	f7ff f885 	bl	80009b0 <HAL_GetTick>
 80018a6:	4606      	mov	r6, r0
 80018a8:	e005      	b.n	80018b6 <HAL_RCC_OscConfig+0x396>
 80018aa:	f7ff f881 	bl	80009b0 <HAL_GetTick>
 80018ae:	1b80      	subs	r0, r0, r6
 80018b0:	2802      	cmp	r0, #2
 80018b2:	f63f af66 	bhi.w	8001782 <HAL_RCC_OscConfig+0x262>
 80018b6:	682b      	ldr	r3, [r5, #0]
 80018b8:	0199      	lsls	r1, r3, #6
 80018ba:	d4f6      	bmi.n	80018aa <HAL_RCC_OscConfig+0x38a>
 80018bc:	6a22      	ldr	r2, [r4, #32]
 80018be:	f5b2 3f80 	cmp.w	r2, #65536	; 0x10000
 80018c2:	d105      	bne.n	80018d0 <HAL_RCC_OscConfig+0x3b0>
 80018c4:	686b      	ldr	r3, [r5, #4]
 80018c6:	68a1      	ldr	r1, [r4, #8]
 80018c8:	f423 3300 	bic.w	r3, r3, #131072	; 0x20000
 80018cc:	430b      	orrs	r3, r1
 80018ce:	606b      	str	r3, [r5, #4]
 80018d0:	2501      	movs	r5, #1
 80018d2:	4b0d      	ldr	r3, [pc, #52]	; (8001908 <HAL_RCC_OscConfig+0x3e8>)
 80018d4:	6a60      	ldr	r0, [r4, #36]	; 0x24
 80018d6:	6859      	ldr	r1, [r3, #4]
 80018d8:	4302      	orrs	r2, r0
 80018da:	f421 1174 	bic.w	r1, r1, #3997696	; 0x3d0000
 80018de:	480b      	ldr	r0, [pc, #44]	; (800190c <HAL_RCC_OscConfig+0x3ec>)
 80018e0:	430a      	orrs	r2, r1
 80018e2:	605a      	str	r2, [r3, #4]
 80018e4:	6005      	str	r5, [r0, #0]
 80018e6:	461c      	mov	r4, r3
 80018e8:	f7ff f862 	bl	80009b0 <HAL_GetTick>
 80018ec:	4605      	mov	r5, r0
 80018ee:	e005      	b.n	80018fc <HAL_RCC_OscConfig+0x3dc>
 80018f0:	f7ff f85e 	bl	80009b0 <HAL_GetTick>
 80018f4:	1b40      	subs	r0, r0, r5
 80018f6:	2802      	cmp	r0, #2
 80018f8:	f63f af43 	bhi.w	8001782 <HAL_RCC_OscConfig+0x262>
 80018fc:	6823      	ldr	r3, [r4, #0]
 80018fe:	019a      	lsls	r2, r3, #6
 8001900:	d5f6      	bpl.n	80018f0 <HAL_RCC_OscConfig+0x3d0>
 8001902:	e6fd      	b.n	8001700 <HAL_RCC_OscConfig+0x1e0>
 8001904:	42420000 	.word	0x42420000
 8001908:	40021000 	.word	0x40021000
 800190c:	42420060 	.word	0x42420060

08001910 <HAL_RCC_ClockConfig>:
 8001910:	b178      	cbz	r0, 8001932 <HAL_RCC_ClockConfig+0x22>
 8001912:	4a61      	ldr	r2, [pc, #388]	; (8001a98 <HAL_RCC_ClockConfig+0x188>)
 8001914:	6813      	ldr	r3, [r2, #0]
 8001916:	f003 0307 	and.w	r3, r3, #7
 800191a:	428b      	cmp	r3, r1
 800191c:	d20b      	bcs.n	8001936 <HAL_RCC_ClockConfig+0x26>
 800191e:	6813      	ldr	r3, [r2, #0]
 8001920:	f023 0307 	bic.w	r3, r3, #7
 8001924:	430b      	orrs	r3, r1
 8001926:	6013      	str	r3, [r2, #0]
 8001928:	6813      	ldr	r3, [r2, #0]
 800192a:	f003 0307 	and.w	r3, r3, #7
 800192e:	428b      	cmp	r3, r1
 8001930:	d001      	beq.n	8001936 <HAL_RCC_ClockConfig+0x26>
 8001932:	2001      	movs	r0, #1
 8001934:	4770      	bx	lr
 8001936:	e92d 41f0 	stmdb	sp!, {r4, r5, r6, r7, r8, lr}
 800193a:	6803      	ldr	r3, [r0, #0]
 800193c:	b086      	sub	sp, #24
 800193e:	079d      	lsls	r5, r3, #30
 8001940:	d514      	bpl.n	800196c <HAL_RCC_ClockConfig+0x5c>
 8001942:	075c      	lsls	r4, r3, #29
 8001944:	d504      	bpl.n	8001950 <HAL_RCC_ClockConfig+0x40>
 8001946:	4c55      	ldr	r4, [pc, #340]	; (8001a9c <HAL_RCC_ClockConfig+0x18c>)
 8001948:	6862      	ldr	r2, [r4, #4]
 800194a:	f442 62e0 	orr.w	r2, r2, #1792	; 0x700
 800194e:	6062      	str	r2, [r4, #4]
 8001950:	071a      	lsls	r2, r3, #28
 8001952:	d504      	bpl.n	800195e <HAL_RCC_ClockConfig+0x4e>
 8001954:	4c51      	ldr	r4, [pc, #324]	; (8001a9c <HAL_RCC_ClockConfig+0x18c>)
 8001956:	6862      	ldr	r2, [r4, #4]
 8001958:	f442 5260 	orr.w	r2, r2, #14336	; 0x3800
 800195c:	6062      	str	r2, [r4, #4]
 800195e:	4c4f      	ldr	r4, [pc, #316]	; (8001a9c <HAL_RCC_ClockConfig+0x18c>)
 8001960:	6885      	ldr	r5, [r0, #8]
 8001962:	6862      	ldr	r2, [r4, #4]
 8001964:	f022 02f0 	bic.w	r2, r2, #240	; 0xf0
 8001968:	432a      	orrs	r2, r5
 800196a:	6062      	str	r2, [r4, #4]
 800196c:	07db      	lsls	r3, r3, #31
 800196e:	4604      	mov	r4, r0
 8001970:	460d      	mov	r5, r1
 8001972:	d521      	bpl.n	80019b8 <HAL_RCC_ClockConfig+0xa8>
 8001974:	6842      	ldr	r2, [r0, #4]
 8001976:	4b49      	ldr	r3, [pc, #292]	; (8001a9c <HAL_RCC_ClockConfig+0x18c>)
 8001978:	2a01      	cmp	r2, #1
 800197a:	681b      	ldr	r3, [r3, #0]
 800197c:	d067      	beq.n	8001a4e <HAL_RCC_ClockConfig+0x13e>
 800197e:	2a02      	cmp	r2, #2
 8001980:	f000 8081 	beq.w	8001a86 <HAL_RCC_ClockConfig+0x176>
 8001984:	0798      	lsls	r0, r3, #30
 8001986:	d527      	bpl.n	80019d8 <HAL_RCC_ClockConfig+0xc8>
 8001988:	4e44      	ldr	r6, [pc, #272]	; (8001a9c <HAL_RCC_ClockConfig+0x18c>)
 800198a:	f241 3888 	movw	r8, #5000	; 0x1388
 800198e:	6873      	ldr	r3, [r6, #4]
 8001990:	f023 0303 	bic.w	r3, r3, #3
 8001994:	4313      	orrs	r3, r2
 8001996:	6073      	str	r3, [r6, #4]
 8001998:	f7ff f80a 	bl	80009b0 <HAL_GetTick>
 800199c:	4607      	mov	r7, r0
 800199e:	e004      	b.n	80019aa <HAL_RCC_ClockConfig+0x9a>
 80019a0:	f7ff f806 	bl	80009b0 <HAL_GetTick>
 80019a4:	1bc0      	subs	r0, r0, r7
 80019a6:	4540      	cmp	r0, r8
 80019a8:	d86b      	bhi.n	8001a82 <HAL_RCC_ClockConfig+0x172>
 80019aa:	6873      	ldr	r3, [r6, #4]
 80019ac:	6862      	ldr	r2, [r4, #4]
 80019ae:	f003 030c 	and.w	r3, r3, #12
 80019b2:	ebb3 0f82 	cmp.w	r3, r2, lsl #2
 80019b6:	d1f3      	bne.n	80019a0 <HAL_RCC_ClockConfig+0x90>
 80019b8:	4a37      	ldr	r2, [pc, #220]	; (8001a98 <HAL_RCC_ClockConfig+0x188>)
 80019ba:	6813      	ldr	r3, [r2, #0]
 80019bc:	f003 0307 	and.w	r3, r3, #7
 80019c0:	42ab      	cmp	r3, r5
 80019c2:	d90d      	bls.n	80019e0 <HAL_RCC_ClockConfig+0xd0>
 80019c4:	6813      	ldr	r3, [r2, #0]
 80019c6:	f023 0307 	bic.w	r3, r3, #7
 80019ca:	432b      	orrs	r3, r5
 80019cc:	6013      	str	r3, [r2, #0]
 80019ce:	6813      	ldr	r3, [r2, #0]
 80019d0:	f003 0307 	and.w	r3, r3, #7
 80019d4:	42ab      	cmp	r3, r5
 80019d6:	d003      	beq.n	80019e0 <HAL_RCC_ClockConfig+0xd0>
 80019d8:	2001      	movs	r0, #1
 80019da:	b006      	add	sp, #24
 80019dc:	e8bd 81f0 	ldmia.w	sp!, {r4, r5, r6, r7, r8, pc}
 80019e0:	6823      	ldr	r3, [r4, #0]
 80019e2:	0759      	lsls	r1, r3, #29
 80019e4:	d506      	bpl.n	80019f4 <HAL_RCC_ClockConfig+0xe4>
 80019e6:	492d      	ldr	r1, [pc, #180]	; (8001a9c <HAL_RCC_ClockConfig+0x18c>)
 80019e8:	68e0      	ldr	r0, [r4, #12]
 80019ea:	684a      	ldr	r2, [r1, #4]
 80019ec:	f422 62e0 	bic.w	r2, r2, #1792	; 0x700
 80019f0:	4302      	orrs	r2, r0
 80019f2:	604a      	str	r2, [r1, #4]
 80019f4:	071a      	lsls	r2, r3, #28
 80019f6:	d507      	bpl.n	8001a08 <HAL_RCC_ClockConfig+0xf8>
 80019f8:	4a28      	ldr	r2, [pc, #160]	; (8001a9c <HAL_RCC_ClockConfig+0x18c>)
 80019fa:	6921      	ldr	r1, [r4, #16]
 80019fc:	6853      	ldr	r3, [r2, #4]
 80019fe:	f423 5360 	bic.w	r3, r3, #14336	; 0x3800
 8001a02:	ea43 03c1 	orr.w	r3, r3, r1, lsl #3
 8001a06:	6053      	str	r3, [r2, #4]
 8001a08:	f240 2201 	movw	r2, #513	; 0x201
 8001a0c:	4b24      	ldr	r3, [pc, #144]	; (8001aa0 <HAL_RCC_ClockConfig+0x190>)
 8001a0e:	ac06      	add	r4, sp, #24
 8001a10:	f8ad 2004 	strh.w	r2, [sp, #4]
 8001a14:	cb0f      	ldmia	r3, {r0, r1, r2, r3}
 8001a16:	e904 000f 	stmdb	r4, {r0, r1, r2, r3}
 8001a1a:	4920      	ldr	r1, [pc, #128]	; (8001a9c <HAL_RCC_ClockConfig+0x18c>)
 8001a1c:	684a      	ldr	r2, [r1, #4]
 8001a1e:	f002 030c 	and.w	r3, r2, #12
 8001a22:	2b04      	cmp	r3, #4
 8001a24:	d016      	beq.n	8001a54 <HAL_RCC_ClockConfig+0x144>
 8001a26:	2b08      	cmp	r3, #8
 8001a28:	d016      	beq.n	8001a58 <HAL_RCC_ClockConfig+0x148>
 8001a2a:	4b1e      	ldr	r3, [pc, #120]	; (8001aa4 <HAL_RCC_ClockConfig+0x194>)
 8001a2c:	4a1b      	ldr	r2, [pc, #108]	; (8001a9c <HAL_RCC_ClockConfig+0x18c>)
 8001a2e:	481e      	ldr	r0, [pc, #120]	; (8001aa8 <HAL_RCC_ClockConfig+0x198>)
 8001a30:	6852      	ldr	r2, [r2, #4]
 8001a32:	491e      	ldr	r1, [pc, #120]	; (8001aac <HAL_RCC_ClockConfig+0x19c>)
 8001a34:	f3c2 1203 	ubfx	r2, r2, #4, #4
 8001a38:	5c80      	ldrb	r0, [r0, r2]
 8001a3a:	4a1d      	ldr	r2, [pc, #116]	; (8001ab0 <HAL_RCC_ClockConfig+0x1a0>)
 8001a3c:	40c3      	lsrs	r3, r0
 8001a3e:	6808      	ldr	r0, [r1, #0]
 8001a40:	6013      	str	r3, [r2, #0]
 8001a42:	f7fe ff73 	bl	800092c <HAL_InitTick>
 8001a46:	2000      	movs	r0, #0
 8001a48:	b006      	add	sp, #24
 8001a4a:	e8bd 81f0 	ldmia.w	sp!, {r4, r5, r6, r7, r8, pc}
 8001a4e:	039f      	lsls	r7, r3, #14
 8001a50:	d49a      	bmi.n	8001988 <HAL_RCC_ClockConfig+0x78>
 8001a52:	e7c1      	b.n	80019d8 <HAL_RCC_ClockConfig+0xc8>
 8001a54:	4b17      	ldr	r3, [pc, #92]	; (8001ab4 <HAL_RCC_ClockConfig+0x1a4>)
 8001a56:	e7e9      	b.n	8001a2c <HAL_RCC_ClockConfig+0x11c>
 8001a58:	a806      	add	r0, sp, #24
 8001a5a:	f3c2 4383 	ubfx	r3, r2, #18, #4
 8001a5e:	4403      	add	r3, r0
 8001a60:	f813 0c10 	ldrb.w	r0, [r3, #-16]
 8001a64:	03d3      	lsls	r3, r2, #15
 8001a66:	d512      	bpl.n	8001a8e <HAL_RCC_ClockConfig+0x17e>
 8001a68:	684a      	ldr	r2, [r1, #4]
 8001a6a:	4b12      	ldr	r3, [pc, #72]	; (8001ab4 <HAL_RCC_ClockConfig+0x1a4>)
 8001a6c:	f3c2 4240 	ubfx	r2, r2, #17, #1
 8001a70:	fb03 f300 	mul.w	r3, r3, r0
 8001a74:	a906      	add	r1, sp, #24
 8001a76:	440a      	add	r2, r1
 8001a78:	f812 2c14 	ldrb.w	r2, [r2, #-20]
 8001a7c:	fbb3 f3f2 	udiv	r3, r3, r2
 8001a80:	e7d4      	b.n	8001a2c <HAL_RCC_ClockConfig+0x11c>
 8001a82:	2003      	movs	r0, #3
 8001a84:	e7a9      	b.n	80019da <HAL_RCC_ClockConfig+0xca>
 8001a86:	019e      	lsls	r6, r3, #6
 8001a88:	f53f af7e 	bmi.w	8001988 <HAL_RCC_ClockConfig+0x78>
 8001a8c:	e7a4      	b.n	80019d8 <HAL_RCC_ClockConfig+0xc8>
 8001a8e:	4b0a      	ldr	r3, [pc, #40]	; (8001ab8 <HAL_RCC_ClockConfig+0x1a8>)
 8001a90:	fb03 f300 	mul.w	r3, r3, r0
 8001a94:	e7ca      	b.n	8001a2c <HAL_RCC_ClockConfig+0x11c>
 8001a96:	bf00      	nop
 8001a98:	40022000 	.word	0x40022000
 8001a9c:	40021000 	.word	0x40021000
 8001aa0:	08004080 	.word	0x08004080
 8001aa4:	007a1200 	.word	0x007a1200
 8001aa8:	08004090 	.word	0x08004090
 8001aac:	20000004 	.word	0x20000004
 8001ab0:	20000118 	.word	0x20000118
 8001ab4:	00b71b00 	.word	0x00b71b00
 8001ab8:	003d0900 	.word	0x003d0900

08001abc <HAL_RCC_GetHCLKFreq>:
 8001abc:	4b01      	ldr	r3, [pc, #4]	; (8001ac4 <HAL_RCC_GetHCLKFreq+0x8>)
 8001abe:	6818      	ldr	r0, [r3, #0]
 8001ac0:	4770      	bx	lr
 8001ac2:	bf00      	nop
 8001ac4:	20000118 	.word	0x20000118

08001ac8 <HAL_RCCEx_PeriphCLKConfig>:
 8001ac8:	e92d 41f0 	stmdb	sp!, {r4, r5, r6, r7, r8, lr}
 8001acc:	4604      	mov	r4, r0
 8001ace:	6800      	ldr	r0, [r0, #0]
 8001ad0:	b082      	sub	sp, #8
 8001ad2:	07c5      	lsls	r5, r0, #31
 8001ad4:	d52a      	bpl.n	8001b2c <HAL_RCCEx_PeriphCLKConfig+0x64>
 8001ad6:	4b3a      	ldr	r3, [pc, #232]	; (8001bc0 <HAL_RCCEx_PeriphCLKConfig+0xf8>)
 8001ad8:	69da      	ldr	r2, [r3, #28]
 8001ada:	00d1      	lsls	r1, r2, #3
 8001adc:	d53d      	bpl.n	8001b5a <HAL_RCCEx_PeriphCLKConfig+0x92>
 8001ade:	4b39      	ldr	r3, [pc, #228]	; (8001bc4 <HAL_RCCEx_PeriphCLKConfig+0xfc>)
 8001ae0:	2500      	movs	r5, #0
 8001ae2:	681a      	ldr	r2, [r3, #0]
 8001ae4:	05d2      	lsls	r2, r2, #23
 8001ae6:	d546      	bpl.n	8001b76 <HAL_RCCEx_PeriphCLKConfig+0xae>
 8001ae8:	4935      	ldr	r1, [pc, #212]	; (8001bc0 <HAL_RCCEx_PeriphCLKConfig+0xf8>)
 8001aea:	6860      	ldr	r0, [r4, #4]
 8001aec:	6a0a      	ldr	r2, [r1, #32]
 8001aee:	f412 7240 	ands.w	r2, r2, #768	; 0x300
 8001af2:	d00f      	beq.n	8001b14 <HAL_RCCEx_PeriphCLKConfig+0x4c>
 8001af4:	f400 7340 	and.w	r3, r0, #768	; 0x300
 8001af8:	4293      	cmp	r3, r2
 8001afa:	d00b      	beq.n	8001b14 <HAL_RCCEx_PeriphCLKConfig+0x4c>
 8001afc:	2701      	movs	r7, #1
 8001afe:	2600      	movs	r6, #0
 8001b00:	6a0b      	ldr	r3, [r1, #32]
 8001b02:	4a31      	ldr	r2, [pc, #196]	; (8001bc8 <HAL_RCCEx_PeriphCLKConfig+0x100>)
 8001b04:	f423 7040 	bic.w	r0, r3, #768	; 0x300
 8001b08:	6017      	str	r7, [r2, #0]
 8001b0a:	6016      	str	r6, [r2, #0]
 8001b0c:	6208      	str	r0, [r1, #32]
 8001b0e:	07d8      	lsls	r0, r3, #31
 8001b10:	d445      	bmi.n	8001b9e <HAL_RCCEx_PeriphCLKConfig+0xd6>
 8001b12:	6860      	ldr	r0, [r4, #4]
 8001b14:	4a2a      	ldr	r2, [pc, #168]	; (8001bc0 <HAL_RCCEx_PeriphCLKConfig+0xf8>)
 8001b16:	6a13      	ldr	r3, [r2, #32]
 8001b18:	f423 7340 	bic.w	r3, r3, #768	; 0x300
 8001b1c:	4303      	orrs	r3, r0
 8001b1e:	6213      	str	r3, [r2, #32]
 8001b20:	b11d      	cbz	r5, 8001b2a <HAL_RCCEx_PeriphCLKConfig+0x62>
 8001b22:	69d3      	ldr	r3, [r2, #28]
 8001b24:	f023 5380 	bic.w	r3, r3, #268435456	; 0x10000000
 8001b28:	61d3      	str	r3, [r2, #28]
 8001b2a:	6820      	ldr	r0, [r4, #0]
 8001b2c:	0783      	lsls	r3, r0, #30
 8001b2e:	d506      	bpl.n	8001b3e <HAL_RCCEx_PeriphCLKConfig+0x76>
 8001b30:	4a23      	ldr	r2, [pc, #140]	; (8001bc0 <HAL_RCCEx_PeriphCLKConfig+0xf8>)
 8001b32:	68a1      	ldr	r1, [r4, #8]
 8001b34:	6853      	ldr	r3, [r2, #4]
 8001b36:	f423 4340 	bic.w	r3, r3, #49152	; 0xc000
 8001b3a:	430b      	orrs	r3, r1
 8001b3c:	6053      	str	r3, [r2, #4]
 8001b3e:	f010 0010 	ands.w	r0, r0, #16
 8001b42:	d007      	beq.n	8001b54 <HAL_RCCEx_PeriphCLKConfig+0x8c>
 8001b44:	2000      	movs	r0, #0
 8001b46:	4a1e      	ldr	r2, [pc, #120]	; (8001bc0 <HAL_RCCEx_PeriphCLKConfig+0xf8>)
 8001b48:	68e1      	ldr	r1, [r4, #12]
 8001b4a:	6853      	ldr	r3, [r2, #4]
 8001b4c:	f423 0380 	bic.w	r3, r3, #4194304	; 0x400000
 8001b50:	430b      	orrs	r3, r1
 8001b52:	6053      	str	r3, [r2, #4]
 8001b54:	b002      	add	sp, #8
 8001b56:	e8bd 81f0 	ldmia.w	sp!, {r4, r5, r6, r7, r8, pc}
 8001b5a:	69da      	ldr	r2, [r3, #28]
 8001b5c:	2501      	movs	r5, #1
 8001b5e:	f042 5280 	orr.w	r2, r2, #268435456	; 0x10000000
 8001b62:	61da      	str	r2, [r3, #28]
 8001b64:	69db      	ldr	r3, [r3, #28]
 8001b66:	f003 5380 	and.w	r3, r3, #268435456	; 0x10000000
 8001b6a:	9301      	str	r3, [sp, #4]
 8001b6c:	9b01      	ldr	r3, [sp, #4]
 8001b6e:	4b15      	ldr	r3, [pc, #84]	; (8001bc4 <HAL_RCCEx_PeriphCLKConfig+0xfc>)
 8001b70:	681a      	ldr	r2, [r3, #0]
 8001b72:	05d2      	lsls	r2, r2, #23
 8001b74:	d4b8      	bmi.n	8001ae8 <HAL_RCCEx_PeriphCLKConfig+0x20>
 8001b76:	681a      	ldr	r2, [r3, #0]
 8001b78:	461e      	mov	r6, r3
 8001b7a:	f442 7280 	orr.w	r2, r2, #256	; 0x100
 8001b7e:	601a      	str	r2, [r3, #0]
 8001b80:	f7fe ff16 	bl	80009b0 <HAL_GetTick>
 8001b84:	4607      	mov	r7, r0
 8001b86:	6833      	ldr	r3, [r6, #0]
 8001b88:	05db      	lsls	r3, r3, #23
 8001b8a:	d4ad      	bmi.n	8001ae8 <HAL_RCCEx_PeriphCLKConfig+0x20>
 8001b8c:	f7fe ff10 	bl	80009b0 <HAL_GetTick>
 8001b90:	1bc0      	subs	r0, r0, r7
 8001b92:	2864      	cmp	r0, #100	; 0x64
 8001b94:	d9f7      	bls.n	8001b86 <HAL_RCCEx_PeriphCLKConfig+0xbe>
 8001b96:	2003      	movs	r0, #3
 8001b98:	b002      	add	sp, #8
 8001b9a:	e8bd 81f0 	ldmia.w	sp!, {r4, r5, r6, r7, r8, pc}
 8001b9e:	460e      	mov	r6, r1
 8001ba0:	f7fe ff06 	bl	80009b0 <HAL_GetTick>
 8001ba4:	f241 3788 	movw	r7, #5000	; 0x1388
 8001ba8:	4680      	mov	r8, r0
 8001baa:	6a33      	ldr	r3, [r6, #32]
 8001bac:	079a      	lsls	r2, r3, #30
 8001bae:	d4b0      	bmi.n	8001b12 <HAL_RCCEx_PeriphCLKConfig+0x4a>
 8001bb0:	f7fe fefe 	bl	80009b0 <HAL_GetTick>
 8001bb4:	eba0 0008 	sub.w	r0, r0, r8
 8001bb8:	42b8      	cmp	r0, r7
 8001bba:	d9f6      	bls.n	8001baa <HAL_RCCEx_PeriphCLKConfig+0xe2>
 8001bbc:	e7eb      	b.n	8001b96 <HAL_RCCEx_PeriphCLKConfig+0xce>
 8001bbe:	bf00      	nop
 8001bc0:	40021000 	.word	0x40021000
 8001bc4:	40007000 	.word	0x40007000
 8001bc8:	42420440 	.word	0x42420440

08001bcc <USB_CoreInit>:
 8001bcc:	b084      	sub	sp, #16
 8001bce:	a801      	add	r0, sp, #4
 8001bd0:	e880 000e 	stmia.w	r0, {r1, r2, r3}
 8001bd4:	b004      	add	sp, #16
 8001bd6:	2000      	movs	r0, #0
 8001bd8:	4770      	bx	lr
 8001bda:	bf00      	nop

08001bdc <USB_EnableGlobalInt>:
 8001bdc:	4602      	mov	r2, r0
 8001bde:	f8b0 3040 	ldrh.w	r3, [r0, #64]	; 0x40
 8001be2:	2000      	movs	r0, #0
 8001be4:	f443 433f 	orr.w	r3, r3, #48896	; 0xbf00
 8001be8:	f8a2 3040 	strh.w	r3, [r2, #64]	; 0x40
 8001bec:	4770      	bx	lr
 8001bee:	bf00      	nop

08001bf0 <USB_DisableGlobalInt>:
 8001bf0:	f244 03ff 	movw	r3, #16639	; 0x40ff
 8001bf4:	4602      	mov	r2, r0
 8001bf6:	f8b0 1040 	ldrh.w	r1, [r0, #64]	; 0x40
 8001bfa:	2000      	movs	r0, #0
 8001bfc:	400b      	ands	r3, r1
 8001bfe:	f8a2 3040 	strh.w	r3, [r2, #64]	; 0x40
 8001c02:	4770      	bx	lr

08001c04 <USB_SetCurrentMode>:
 8001c04:	2000      	movs	r0, #0
 8001c06:	4770      	bx	lr

08001c08 <USB_DevInit>:
 8001c08:	b084      	sub	sp, #16
 8001c0a:	b470      	push	{r4, r5, r6}
 8001c0c:	4604      	mov	r4, r0
 8001c0e:	2501      	movs	r5, #1
 8001c10:	2000      	movs	r0, #0
 8001c12:	f8a4 5040 	strh.w	r5, [r4, #64]	; 0x40
 8001c16:	f8a4 0040 	strh.w	r0, [r4, #64]	; 0x40
 8001c1a:	f8a4 0044 	strh.w	r0, [r4, #68]	; 0x44
 8001c1e:	f8a4 0050 	strh.w	r0, [r4, #80]	; 0x50
 8001c22:	f8b4 6040 	ldrh.w	r6, [r4, #64]	; 0x40
 8001c26:	ad04      	add	r5, sp, #16
 8001c28:	f446 463f 	orr.w	r6, r6, #48896	; 0xbf00
 8001c2c:	f8a4 6040 	strh.w	r6, [r4, #64]	; 0x40
 8001c30:	e885 000e 	stmia.w	r5, {r1, r2, r3}
 8001c34:	bc70      	pop	{r4, r5, r6}
 8001c36:	b004      	add	sp, #16
 8001c38:	4770      	bx	lr
 8001c3a:	bf00      	nop

08001c3c <USB_ActivateEndpoint>:
 8001c3c:	b470      	push	{r4, r5, r6}
 8001c3e:	780d      	ldrb	r5, [r1, #0]
 8001c40:	4603      	mov	r3, r0
 8001c42:	f830 4025 	ldrh.w	r4, [r0, r5, lsl #2]
 8001c46:	4abc      	ldr	r2, [pc, #752]	; (8001f38 <USB_ActivateEndpoint+0x2fc>)
 8001c48:	78c8      	ldrb	r0, [r1, #3]
 8001c4a:	4022      	ands	r2, r4
 8001c4c:	2803      	cmp	r0, #3
 8001c4e:	f200 8142 	bhi.w	8001ed6 <USB_ActivateEndpoint+0x29a>
 8001c52:	e8df f000 	tbb	[pc, r0]
 8001c56:	464e      	.short	0x464e
 8001c58:	4a02      	.short	0x4a02
 8001c5a:	2000      	movs	r0, #0
 8001c5c:	f248 0480 	movw	r4, #32896	; 0x8080
 8001c60:	4322      	orrs	r2, r4
 8001c62:	f823 2025 	strh.w	r2, [r3, r5, lsl #2]
 8001c66:	780d      	ldrb	r5, [r1, #0]
 8001c68:	4eb4      	ldr	r6, [pc, #720]	; (8001f3c <USB_ActivateEndpoint+0x300>)
 8001c6a:	f833 2025 	ldrh.w	r2, [r3, r5, lsl #2]
 8001c6e:	432c      	orrs	r4, r5
 8001c70:	4032      	ands	r2, r6
 8001c72:	4322      	orrs	r2, r4
 8001c74:	f823 2025 	strh.w	r2, [r3, r5, lsl #2]
 8001c78:	7b0a      	ldrb	r2, [r1, #12]
 8001c7a:	2a00      	cmp	r2, #0
 8001c7c:	d13d      	bne.n	8001cfa <USB_ActivateEndpoint+0xbe>
 8001c7e:	88cc      	ldrh	r4, [r1, #6]
 8001c80:	780a      	ldrb	r2, [r1, #0]
 8001c82:	784d      	ldrb	r5, [r1, #1]
 8001c84:	0864      	lsrs	r4, r4, #1
 8001c86:	0064      	lsls	r4, r4, #1
 8001c88:	eb03 1202 	add.w	r2, r3, r2, lsl #4
 8001c8c:	2d00      	cmp	r5, #0
 8001c8e:	f000 80e8 	beq.w	8001e62 <USB_ActivateEndpoint+0x226>
 8001c92:	f8b3 5050 	ldrh.w	r5, [r3, #80]	; 0x50
 8001c96:	442a      	add	r2, r5
 8001c98:	f8a2 4400 	strh.w	r4, [r2, #1024]	; 0x400
 8001c9c:	780a      	ldrb	r2, [r1, #0]
 8001c9e:	f833 5022 	ldrh.w	r5, [r3, r2, lsl #2]
 8001ca2:	eb03 0482 	add.w	r4, r3, r2, lsl #2
 8001ca6:	066d      	lsls	r5, r5, #25
 8001ca8:	d50b      	bpl.n	8001cc2 <USB_ActivateEndpoint+0x86>
 8001caa:	f833 4022 	ldrh.w	r4, [r3, r2, lsl #2]
 8001cae:	4026      	ands	r6, r4
 8001cb0:	f446 4600 	orr.w	r6, r6, #32768	; 0x8000
 8001cb4:	f046 06c0 	orr.w	r6, r6, #192	; 0xc0
 8001cb8:	f823 6022 	strh.w	r6, [r3, r2, lsl #2]
 8001cbc:	780c      	ldrb	r4, [r1, #0]
 8001cbe:	eb03 0484 	add.w	r4, r3, r4, lsl #2
 8001cc2:	78cb      	ldrb	r3, [r1, #3]
 8001cc4:	2b01      	cmp	r3, #1
 8001cc6:	f000 8120 	beq.w	8001f0a <USB_ActivateEndpoint+0x2ce>
 8001cca:	8822      	ldrh	r2, [r4, #0]
 8001ccc:	4b9c      	ldr	r3, [pc, #624]	; (8001f40 <USB_ActivateEndpoint+0x304>)
 8001cce:	4013      	ands	r3, r2
 8001cd0:	f083 0320 	eor.w	r3, r3, #32
 8001cd4:	f443 4300 	orr.w	r3, r3, #32768	; 0x8000
 8001cd8:	f043 0380 	orr.w	r3, r3, #128	; 0x80
 8001cdc:	8023      	strh	r3, [r4, #0]
 8001cde:	bc70      	pop	{r4, r5, r6}
 8001ce0:	4770      	bx	lr
 8001ce2:	f442 6280 	orr.w	r2, r2, #1024	; 0x400
 8001ce6:	2000      	movs	r0, #0
 8001ce8:	e7b8      	b.n	8001c5c <USB_ActivateEndpoint+0x20>
 8001cea:	f442 62c0 	orr.w	r2, r2, #1536	; 0x600
 8001cee:	2000      	movs	r0, #0
 8001cf0:	e7b4      	b.n	8001c5c <USB_ActivateEndpoint+0x20>
 8001cf2:	f442 7200 	orr.w	r2, r2, #512	; 0x200
 8001cf6:	2000      	movs	r0, #0
 8001cf8:	e7b0      	b.n	8001c5c <USB_ActivateEndpoint+0x20>
 8001cfa:	780c      	ldrb	r4, [r1, #0]
 8001cfc:	f833 2024 	ldrh.w	r2, [r3, r4, lsl #2]
 8001d00:	4032      	ands	r2, r6
 8001d02:	f442 4201 	orr.w	r2, r2, #33024	; 0x8100
 8001d06:	f042 0280 	orr.w	r2, r2, #128	; 0x80
 8001d0a:	f823 2024 	strh.w	r2, [r3, r4, lsl #2]
 8001d0e:	780a      	ldrb	r2, [r1, #0]
 8001d10:	890c      	ldrh	r4, [r1, #8]
 8001d12:	f8b3 5050 	ldrh.w	r5, [r3, #80]	; 0x50
 8001d16:	eb03 1202 	add.w	r2, r3, r2, lsl #4
 8001d1a:	0864      	lsrs	r4, r4, #1
 8001d1c:	f502 6280 	add.w	r2, r2, #1024	; 0x400
 8001d20:	0064      	lsls	r4, r4, #1
 8001d22:	b2ad      	uxth	r5, r5
 8001d24:	5354      	strh	r4, [r2, r5]
 8001d26:	780a      	ldrb	r2, [r1, #0]
 8001d28:	894c      	ldrh	r4, [r1, #10]
 8001d2a:	f8b3 5050 	ldrh.w	r5, [r3, #80]	; 0x50
 8001d2e:	eb03 1202 	add.w	r2, r3, r2, lsl #4
 8001d32:	0864      	lsrs	r4, r4, #1
 8001d34:	f502 6281 	add.w	r2, r2, #1032	; 0x408
 8001d38:	0064      	lsls	r4, r4, #1
 8001d3a:	b2ad      	uxth	r5, r5
 8001d3c:	5354      	strh	r4, [r2, r5]
 8001d3e:	784a      	ldrb	r2, [r1, #1]
 8001d40:	2a00      	cmp	r2, #0
 8001d42:	d142      	bne.n	8001dca <USB_ActivateEndpoint+0x18e>
 8001d44:	780a      	ldrb	r2, [r1, #0]
 8001d46:	f833 5022 	ldrh.w	r5, [r3, r2, lsl #2]
 8001d4a:	eb03 0482 	add.w	r4, r3, r2, lsl #2
 8001d4e:	046d      	lsls	r5, r5, #17
 8001d50:	d50b      	bpl.n	8001d6a <USB_ActivateEndpoint+0x12e>
 8001d52:	f833 4022 	ldrh.w	r4, [r3, r2, lsl #2]
 8001d56:	4026      	ands	r6, r4
 8001d58:	f446 4640 	orr.w	r6, r6, #49152	; 0xc000
 8001d5c:	f046 0680 	orr.w	r6, r6, #128	; 0x80
 8001d60:	f823 6022 	strh.w	r6, [r3, r2, lsl #2]
 8001d64:	780c      	ldrb	r4, [r1, #0]
 8001d66:	eb03 0484 	add.w	r4, r3, r4, lsl #2
 8001d6a:	8822      	ldrh	r2, [r4, #0]
 8001d6c:	0656      	lsls	r6, r2, #25
 8001d6e:	d50c      	bpl.n	8001d8a <USB_ActivateEndpoint+0x14e>
 8001d70:	8822      	ldrh	r2, [r4, #0]
 8001d72:	f022 02f0 	bic.w	r2, r2, #240	; 0xf0
 8001d76:	0512      	lsls	r2, r2, #20
 8001d78:	0d12      	lsrs	r2, r2, #20
 8001d7a:	f442 4200 	orr.w	r2, r2, #32768	; 0x8000
 8001d7e:	f042 02c0 	orr.w	r2, r2, #192	; 0xc0
 8001d82:	8022      	strh	r2, [r4, #0]
 8001d84:	780c      	ldrb	r4, [r1, #0]
 8001d86:	eb03 0484 	add.w	r4, r3, r4, lsl #2
 8001d8a:	f248 0680 	movw	r6, #32896	; 0x8080
 8001d8e:	8822      	ldrh	r2, [r4, #0]
 8001d90:	4d6c      	ldr	r5, [pc, #432]	; (8001f44 <USB_ActivateEndpoint+0x308>)
 8001d92:	f022 02f0 	bic.w	r2, r2, #240	; 0xf0
 8001d96:	0512      	lsls	r2, r2, #20
 8001d98:	0d12      	lsrs	r2, r2, #20
 8001d9a:	f442 4200 	orr.w	r2, r2, #32768	; 0x8000
 8001d9e:	f042 02c0 	orr.w	r2, r2, #192	; 0xc0
 8001da2:	8022      	strh	r2, [r4, #0]
 8001da4:	780c      	ldrb	r4, [r1, #0]
 8001da6:	f833 2024 	ldrh.w	r2, [r3, r4, lsl #2]
 8001daa:	402a      	ands	r2, r5
 8001dac:	f482 5240 	eor.w	r2, r2, #12288	; 0x3000
 8001db0:	4332      	orrs	r2, r6
 8001db2:	f823 2024 	strh.w	r2, [r3, r4, lsl #2]
 8001db6:	7809      	ldrb	r1, [r1, #0]
 8001db8:	4a61      	ldr	r2, [pc, #388]	; (8001f40 <USB_ActivateEndpoint+0x304>)
 8001dba:	f833 4021 	ldrh.w	r4, [r3, r1, lsl #2]
 8001dbe:	4022      	ands	r2, r4
 8001dc0:	4332      	orrs	r2, r6
 8001dc2:	f823 2021 	strh.w	r2, [r3, r1, lsl #2]
 8001dc6:	bc70      	pop	{r4, r5, r6}
 8001dc8:	4770      	bx	lr
 8001dca:	780a      	ldrb	r2, [r1, #0]
 8001dcc:	f833 5022 	ldrh.w	r5, [r3, r2, lsl #2]
 8001dd0:	eb03 0482 	add.w	r4, r3, r2, lsl #2
 8001dd4:	046d      	lsls	r5, r5, #17
 8001dd6:	d50b      	bpl.n	8001df0 <USB_ActivateEndpoint+0x1b4>
 8001dd8:	f833 4022 	ldrh.w	r4, [r3, r2, lsl #2]
 8001ddc:	4026      	ands	r6, r4
 8001dde:	f446 4640 	orr.w	r6, r6, #49152	; 0xc000
 8001de2:	f046 0680 	orr.w	r6, r6, #128	; 0x80
 8001de6:	f823 6022 	strh.w	r6, [r3, r2, lsl #2]
 8001dea:	780c      	ldrb	r4, [r1, #0]
 8001dec:	eb03 0484 	add.w	r4, r3, r4, lsl #2
 8001df0:	8822      	ldrh	r2, [r4, #0]
 8001df2:	0652      	lsls	r2, r2, #25
 8001df4:	d50c      	bpl.n	8001e10 <USB_ActivateEndpoint+0x1d4>
 8001df6:	8822      	ldrh	r2, [r4, #0]
 8001df8:	f022 02f0 	bic.w	r2, r2, #240	; 0xf0
 8001dfc:	0512      	lsls	r2, r2, #20
 8001dfe:	0d12      	lsrs	r2, r2, #20
 8001e00:	f442 4200 	orr.w	r2, r2, #32768	; 0x8000
 8001e04:	f042 02c0 	orr.w	r2, r2, #192	; 0xc0
 8001e08:	8022      	strh	r2, [r4, #0]
 8001e0a:	780c      	ldrb	r4, [r1, #0]
 8001e0c:	eb03 0484 	add.w	r4, r3, r4, lsl #2
 8001e10:	8822      	ldrh	r2, [r4, #0]
 8001e12:	f022 02f0 	bic.w	r2, r2, #240	; 0xf0
 8001e16:	0512      	lsls	r2, r2, #20
 8001e18:	0d12      	lsrs	r2, r2, #20
 8001e1a:	f442 4240 	orr.w	r2, r2, #49152	; 0xc000
 8001e1e:	f042 0280 	orr.w	r2, r2, #128	; 0x80
 8001e22:	8022      	strh	r2, [r4, #0]
 8001e24:	78ca      	ldrb	r2, [r1, #3]
 8001e26:	780c      	ldrb	r4, [r1, #0]
 8001e28:	2a01      	cmp	r2, #1
 8001e2a:	d061      	beq.n	8001ef0 <USB_ActivateEndpoint+0x2b4>
 8001e2c:	f833 5024 	ldrh.w	r5, [r3, r4, lsl #2]
 8001e30:	4a43      	ldr	r2, [pc, #268]	; (8001f40 <USB_ActivateEndpoint+0x304>)
 8001e32:	402a      	ands	r2, r5
 8001e34:	f082 0220 	eor.w	r2, r2, #32
 8001e38:	f442 4200 	orr.w	r2, r2, #32768	; 0x8000
 8001e3c:	f042 0280 	orr.w	r2, r2, #128	; 0x80
 8001e40:	f823 2024 	strh.w	r2, [r3, r4, lsl #2]
 8001e44:	7809      	ldrb	r1, [r1, #0]
 8001e46:	bc70      	pop	{r4, r5, r6}
 8001e48:	f833 2021 	ldrh.w	r2, [r3, r1, lsl #2]
 8001e4c:	f022 02f0 	bic.w	r2, r2, #240	; 0xf0
 8001e50:	0492      	lsls	r2, r2, #18
 8001e52:	0c92      	lsrs	r2, r2, #18
 8001e54:	f442 4200 	orr.w	r2, r2, #32768	; 0x8000
 8001e58:	f042 0280 	orr.w	r2, r2, #128	; 0x80
 8001e5c:	f823 2021 	strh.w	r2, [r3, r1, lsl #2]
 8001e60:	4770      	bx	lr
 8001e62:	f8b3 6050 	ldrh.w	r6, [r3, #80]	; 0x50
 8001e66:	690d      	ldr	r5, [r1, #16]
 8001e68:	4432      	add	r2, r6
 8001e6a:	f8a2 4408 	strh.w	r4, [r2, #1032]	; 0x408
 8001e6e:	780a      	ldrb	r2, [r1, #0]
 8001e70:	f8b3 4050 	ldrh.w	r4, [r3, #80]	; 0x50
 8001e74:	eb03 1202 	add.w	r2, r3, r2, lsl #4
 8001e78:	f202 420c 	addw	r2, r2, #1036	; 0x40c
 8001e7c:	b2a4      	uxth	r4, r4
 8001e7e:	b365      	cbz	r5, 8001eda <USB_ActivateEndpoint+0x29e>
 8001e80:	2d3e      	cmp	r5, #62	; 0x3e
 8001e82:	d84d      	bhi.n	8001f20 <USB_ActivateEndpoint+0x2e4>
 8001e84:	086e      	lsrs	r6, r5, #1
 8001e86:	07ed      	lsls	r5, r5, #31
 8001e88:	bf48      	it	mi
 8001e8a:	3601      	addmi	r6, #1
 8001e8c:	02b6      	lsls	r6, r6, #10
 8001e8e:	b2b6      	uxth	r6, r6
 8001e90:	5316      	strh	r6, [r2, r4]
 8001e92:	780c      	ldrb	r4, [r1, #0]
 8001e94:	f833 5024 	ldrh.w	r5, [r3, r4, lsl #2]
 8001e98:	eb03 0284 	add.w	r2, r3, r4, lsl #2
 8001e9c:	046e      	lsls	r6, r5, #17
 8001e9e:	d50e      	bpl.n	8001ebe <USB_ActivateEndpoint+0x282>
 8001ea0:	f833 2024 	ldrh.w	r2, [r3, r4, lsl #2]
 8001ea4:	f022 02f0 	bic.w	r2, r2, #240	; 0xf0
 8001ea8:	0512      	lsls	r2, r2, #20
 8001eaa:	0d12      	lsrs	r2, r2, #20
 8001eac:	f442 4240 	orr.w	r2, r2, #49152	; 0xc000
 8001eb0:	f042 0280 	orr.w	r2, r2, #128	; 0x80
 8001eb4:	f823 2024 	strh.w	r2, [r3, r4, lsl #2]
 8001eb8:	780a      	ldrb	r2, [r1, #0]
 8001eba:	eb03 0282 	add.w	r2, r3, r2, lsl #2
 8001ebe:	8811      	ldrh	r1, [r2, #0]
 8001ec0:	4b20      	ldr	r3, [pc, #128]	; (8001f44 <USB_ActivateEndpoint+0x308>)
 8001ec2:	bc70      	pop	{r4, r5, r6}
 8001ec4:	400b      	ands	r3, r1
 8001ec6:	f483 5340 	eor.w	r3, r3, #12288	; 0x3000
 8001eca:	f443 4300 	orr.w	r3, r3, #32768	; 0x8000
 8001ece:	f043 0380 	orr.w	r3, r3, #128	; 0x80
 8001ed2:	8013      	strh	r3, [r2, #0]
 8001ed4:	4770      	bx	lr
 8001ed6:	2001      	movs	r0, #1
 8001ed8:	e6c0      	b.n	8001c5c <USB_ActivateEndpoint+0x20>
 8001eda:	5b15      	ldrh	r5, [r2, r4]
 8001edc:	f425 45f8 	bic.w	r5, r5, #31744	; 0x7c00
 8001ee0:	042d      	lsls	r5, r5, #16
 8001ee2:	0c2d      	lsrs	r5, r5, #16
 8001ee4:	5315      	strh	r5, [r2, r4]
 8001ee6:	5b15      	ldrh	r5, [r2, r4]
 8001ee8:	f445 4500 	orr.w	r5, r5, #32768	; 0x8000
 8001eec:	5315      	strh	r5, [r2, r4]
 8001eee:	e7d0      	b.n	8001e92 <USB_ActivateEndpoint+0x256>
 8001ef0:	f833 2024 	ldrh.w	r2, [r3, r4, lsl #2]
 8001ef4:	f022 02c0 	bic.w	r2, r2, #192	; 0xc0
 8001ef8:	0512      	lsls	r2, r2, #20
 8001efa:	0d12      	lsrs	r2, r2, #20
 8001efc:	f442 4200 	orr.w	r2, r2, #32768	; 0x8000
 8001f00:	f042 0280 	orr.w	r2, r2, #128	; 0x80
 8001f04:	f823 2024 	strh.w	r2, [r3, r4, lsl #2]
 8001f08:	e79c      	b.n	8001e44 <USB_ActivateEndpoint+0x208>
 8001f0a:	8823      	ldrh	r3, [r4, #0]
 8001f0c:	f023 03c0 	bic.w	r3, r3, #192	; 0xc0
 8001f10:	051b      	lsls	r3, r3, #20
 8001f12:	0d1b      	lsrs	r3, r3, #20
 8001f14:	f443 4300 	orr.w	r3, r3, #32768	; 0x8000
 8001f18:	f043 0380 	orr.w	r3, r3, #128	; 0x80
 8001f1c:	8023      	strh	r3, [r4, #0]
 8001f1e:	e752      	b.n	8001dc6 <USB_ActivateEndpoint+0x18a>
 8001f20:	096e      	lsrs	r6, r5, #5
 8001f22:	06ed      	lsls	r5, r5, #27
 8001f24:	4d08      	ldr	r5, [pc, #32]	; (8001f48 <USB_ActivateEndpoint+0x30c>)
 8001f26:	bf08      	it	eq
 8001f28:	f106 36ff 	addeq.w	r6, r6, #4294967295
 8001f2c:	ea45 2586 	orr.w	r5, r5, r6, lsl #10
 8001f30:	b2ad      	uxth	r5, r5
 8001f32:	5315      	strh	r5, [r2, r4]
 8001f34:	e7ad      	b.n	8001e92 <USB_ActivateEndpoint+0x256>
 8001f36:	bf00      	nop
 8001f38:	ffff898f 	.word	0xffff898f
 8001f3c:	ffff8f8f 	.word	0xffff8f8f
 8001f40:	ffff8fbf 	.word	0xffff8fbf
 8001f44:	ffffbf8f 	.word	0xffffbf8f
 8001f48:	ffff8000 	.word	0xffff8000

08001f4c <USB_DeactivateEndpoint>:
 8001f4c:	b430      	push	{r4, r5}
 8001f4e:	780a      	ldrb	r2, [r1, #0]
 8001f50:	7b0d      	ldrb	r5, [r1, #12]
 8001f52:	eb00 0382 	add.w	r3, r0, r2, lsl #2
 8001f56:	784c      	ldrb	r4, [r1, #1]
 8001f58:	bb15      	cbnz	r5, 8001fa0 <USB_DeactivateEndpoint+0x54>
 8001f5a:	2c00      	cmp	r4, #0
 8001f5c:	f000 8099 	beq.w	8002092 <USB_DeactivateEndpoint+0x146>
 8001f60:	f830 4022 	ldrh.w	r4, [r0, r2, lsl #2]
 8001f64:	0664      	lsls	r4, r4, #25
 8001f66:	d50e      	bpl.n	8001f86 <USB_DeactivateEndpoint+0x3a>
 8001f68:	f830 3022 	ldrh.w	r3, [r0, r2, lsl #2]
 8001f6c:	f023 03f0 	bic.w	r3, r3, #240	; 0xf0
 8001f70:	051b      	lsls	r3, r3, #20
 8001f72:	0d1b      	lsrs	r3, r3, #20
 8001f74:	f443 4300 	orr.w	r3, r3, #32768	; 0x8000
 8001f78:	f043 03c0 	orr.w	r3, r3, #192	; 0xc0
 8001f7c:	f820 3022 	strh.w	r3, [r0, r2, lsl #2]
 8001f80:	780b      	ldrb	r3, [r1, #0]
 8001f82:	eb00 0383 	add.w	r3, r0, r3, lsl #2
 8001f86:	881a      	ldrh	r2, [r3, #0]
 8001f88:	2000      	movs	r0, #0
 8001f8a:	bc30      	pop	{r4, r5}
 8001f8c:	f022 02c0 	bic.w	r2, r2, #192	; 0xc0
 8001f90:	0512      	lsls	r2, r2, #20
 8001f92:	0d12      	lsrs	r2, r2, #20
 8001f94:	f442 4200 	orr.w	r2, r2, #32768	; 0x8000
 8001f98:	f042 0280 	orr.w	r2, r2, #128	; 0x80
 8001f9c:	801a      	strh	r2, [r3, #0]
 8001f9e:	4770      	bx	lr
 8001fa0:	2c00      	cmp	r4, #0
 8001fa2:	d141      	bne.n	8002028 <USB_DeactivateEndpoint+0xdc>
 8001fa4:	f830 4022 	ldrh.w	r4, [r0, r2, lsl #2]
 8001fa8:	0464      	lsls	r4, r4, #17
 8001faa:	d50e      	bpl.n	8001fca <USB_DeactivateEndpoint+0x7e>
 8001fac:	f830 3022 	ldrh.w	r3, [r0, r2, lsl #2]
 8001fb0:	f023 03f0 	bic.w	r3, r3, #240	; 0xf0
 8001fb4:	051b      	lsls	r3, r3, #20
 8001fb6:	0d1b      	lsrs	r3, r3, #20
 8001fb8:	f443 4340 	orr.w	r3, r3, #49152	; 0xc000
 8001fbc:	f043 0380 	orr.w	r3, r3, #128	; 0x80
 8001fc0:	f820 3022 	strh.w	r3, [r0, r2, lsl #2]
 8001fc4:	780b      	ldrb	r3, [r1, #0]
 8001fc6:	eb00 0383 	add.w	r3, r0, r3, lsl #2
 8001fca:	881a      	ldrh	r2, [r3, #0]
 8001fcc:	0655      	lsls	r5, r2, #25
 8001fce:	d50c      	bpl.n	8001fea <USB_DeactivateEndpoint+0x9e>
 8001fd0:	881a      	ldrh	r2, [r3, #0]
 8001fd2:	f022 02f0 	bic.w	r2, r2, #240	; 0xf0
 8001fd6:	0512      	lsls	r2, r2, #20
 8001fd8:	0d12      	lsrs	r2, r2, #20
 8001fda:	f442 4200 	orr.w	r2, r2, #32768	; 0x8000
 8001fde:	f042 02c0 	orr.w	r2, r2, #192	; 0xc0
 8001fe2:	801a      	strh	r2, [r3, #0]
 8001fe4:	780b      	ldrb	r3, [r1, #0]
 8001fe6:	eb00 0383 	add.w	r3, r0, r3, lsl #2
 8001fea:	f248 0580 	movw	r5, #32896	; 0x8080
 8001fee:	881a      	ldrh	r2, [r3, #0]
 8001ff0:	4c3f      	ldr	r4, [pc, #252]	; (80020f0 <USB_DeactivateEndpoint+0x1a4>)
 8001ff2:	f022 02f0 	bic.w	r2, r2, #240	; 0xf0
 8001ff6:	0512      	lsls	r2, r2, #20
 8001ff8:	0d12      	lsrs	r2, r2, #20
 8001ffa:	f442 4200 	orr.w	r2, r2, #32768	; 0x8000
 8001ffe:	f042 02c0 	orr.w	r2, r2, #192	; 0xc0
 8002002:	801a      	strh	r2, [r3, #0]
 8002004:	780a      	ldrb	r2, [r1, #0]
 8002006:	f830 3022 	ldrh.w	r3, [r0, r2, lsl #2]
 800200a:	4023      	ands	r3, r4
 800200c:	432b      	orrs	r3, r5
 800200e:	f820 3022 	strh.w	r3, [r0, r2, lsl #2]
 8002012:	780a      	ldrb	r2, [r1, #0]
 8002014:	4b37      	ldr	r3, [pc, #220]	; (80020f4 <USB_DeactivateEndpoint+0x1a8>)
 8002016:	f830 1022 	ldrh.w	r1, [r0, r2, lsl #2]
 800201a:	400b      	ands	r3, r1
 800201c:	431d      	orrs	r5, r3
 800201e:	f820 5022 	strh.w	r5, [r0, r2, lsl #2]
 8002022:	2000      	movs	r0, #0
 8002024:	bc30      	pop	{r4, r5}
 8002026:	4770      	bx	lr
 8002028:	f830 4022 	ldrh.w	r4, [r0, r2, lsl #2]
 800202c:	0464      	lsls	r4, r4, #17
 800202e:	d50e      	bpl.n	800204e <USB_DeactivateEndpoint+0x102>
 8002030:	f830 3022 	ldrh.w	r3, [r0, r2, lsl #2]
 8002034:	f023 03f0 	bic.w	r3, r3, #240	; 0xf0
 8002038:	051b      	lsls	r3, r3, #20
 800203a:	0d1b      	lsrs	r3, r3, #20
 800203c:	f443 4340 	orr.w	r3, r3, #49152	; 0xc000
 8002040:	f043 0380 	orr.w	r3, r3, #128	; 0x80
 8002044:	f820 3022 	strh.w	r3, [r0, r2, lsl #2]
 8002048:	780b      	ldrb	r3, [r1, #0]
 800204a:	eb00 0383 	add.w	r3, r0, r3, lsl #2
 800204e:	881a      	ldrh	r2, [r3, #0]
 8002050:	0652      	lsls	r2, r2, #25
 8002052:	d43e      	bmi.n	80020d2 <USB_DeactivateEndpoint+0x186>
 8002054:	f248 0580 	movw	r5, #32896	; 0x8080
 8002058:	881a      	ldrh	r2, [r3, #0]
 800205a:	4c26      	ldr	r4, [pc, #152]	; (80020f4 <USB_DeactivateEndpoint+0x1a8>)
 800205c:	f022 02f0 	bic.w	r2, r2, #240	; 0xf0
 8002060:	0512      	lsls	r2, r2, #20
 8002062:	0d12      	lsrs	r2, r2, #20
 8002064:	f442 4240 	orr.w	r2, r2, #49152	; 0xc000
 8002068:	f042 0280 	orr.w	r2, r2, #128	; 0x80
 800206c:	801a      	strh	r2, [r3, #0]
 800206e:	780a      	ldrb	r2, [r1, #0]
 8002070:	f830 3022 	ldrh.w	r3, [r0, r2, lsl #2]
 8002074:	4023      	ands	r3, r4
 8002076:	432b      	orrs	r3, r5
 8002078:	f820 3022 	strh.w	r3, [r0, r2, lsl #2]
 800207c:	780a      	ldrb	r2, [r1, #0]
 800207e:	4b1c      	ldr	r3, [pc, #112]	; (80020f0 <USB_DeactivateEndpoint+0x1a4>)
 8002080:	f830 1022 	ldrh.w	r1, [r0, r2, lsl #2]
 8002084:	400b      	ands	r3, r1
 8002086:	431d      	orrs	r5, r3
 8002088:	f820 5022 	strh.w	r5, [r0, r2, lsl #2]
 800208c:	2000      	movs	r0, #0
 800208e:	bc30      	pop	{r4, r5}
 8002090:	4770      	bx	lr
 8002092:	f830 4022 	ldrh.w	r4, [r0, r2, lsl #2]
 8002096:	0465      	lsls	r5, r4, #17
 8002098:	d50e      	bpl.n	80020b8 <USB_DeactivateEndpoint+0x16c>
 800209a:	f830 3022 	ldrh.w	r3, [r0, r2, lsl #2]
 800209e:	f023 03f0 	bic.w	r3, r3, #240	; 0xf0
 80020a2:	051b      	lsls	r3, r3, #20
 80020a4:	0d1b      	lsrs	r3, r3, #20
 80020a6:	f443 4340 	orr.w	r3, r3, #49152	; 0xc000
 80020aa:	f043 0380 	orr.w	r3, r3, #128	; 0x80
 80020ae:	f820 3022 	strh.w	r3, [r0, r2, lsl #2]
 80020b2:	780b      	ldrb	r3, [r1, #0]
 80020b4:	eb00 0383 	add.w	r3, r0, r3, lsl #2
 80020b8:	881a      	ldrh	r2, [r3, #0]
 80020ba:	2000      	movs	r0, #0
 80020bc:	bc30      	pop	{r4, r5}
 80020be:	f022 02f0 	bic.w	r2, r2, #240	; 0xf0
 80020c2:	0492      	lsls	r2, r2, #18
 80020c4:	0c92      	lsrs	r2, r2, #18
 80020c6:	f442 4200 	orr.w	r2, r2, #32768	; 0x8000
 80020ca:	f042 0280 	orr.w	r2, r2, #128	; 0x80
 80020ce:	801a      	strh	r2, [r3, #0]
 80020d0:	4770      	bx	lr
 80020d2:	881a      	ldrh	r2, [r3, #0]
 80020d4:	f022 02f0 	bic.w	r2, r2, #240	; 0xf0
 80020d8:	0512      	lsls	r2, r2, #20
 80020da:	0d12      	lsrs	r2, r2, #20
 80020dc:	f442 4200 	orr.w	r2, r2, #32768	; 0x8000
 80020e0:	f042 02c0 	orr.w	r2, r2, #192	; 0xc0
 80020e4:	801a      	strh	r2, [r3, #0]
 80020e6:	780b      	ldrb	r3, [r1, #0]
 80020e8:	eb00 0383 	add.w	r3, r0, r3, lsl #2
 80020ec:	e7b2      	b.n	8002054 <USB_DeactivateEndpoint+0x108>
 80020ee:	bf00      	nop
 80020f0:	ffffbf8f 	.word	0xffffbf8f
 80020f4:	ffff8fbf 	.word	0xffff8fbf

080020f8 <USB_EPStartXfer>:
 80020f8:	b4f0      	push	{r4, r5, r6, r7}
 80020fa:	784c      	ldrb	r4, [r1, #1]
 80020fc:	698b      	ldr	r3, [r1, #24]
 80020fe:	2c01      	cmp	r4, #1
 8002100:	690a      	ldr	r2, [r1, #16]
 8002102:	d05a      	beq.n	80021ba <USB_EPStartXfer+0xc2>
 8002104:	4293      	cmp	r3, r2
 8002106:	bf98      	it	ls
 8002108:	2600      	movls	r6, #0
 800210a:	7b0d      	ldrb	r5, [r1, #12]
 800210c:	bf88      	it	hi
 800210e:	1a9e      	subhi	r6, r3, r2
 8002110:	618e      	str	r6, [r1, #24]
 8002112:	bf88      	it	hi
 8002114:	4613      	movhi	r3, r2
 8002116:	780a      	ldrb	r2, [r1, #0]
 8002118:	bb15      	cbnz	r5, 8002160 <USB_EPStartXfer+0x68>
 800211a:	f8b0 5050 	ldrh.w	r5, [r0, #80]	; 0x50
 800211e:	f200 440c 	addw	r4, r0, #1036	; 0x40c
 8002122:	0112      	lsls	r2, r2, #4
 8002124:	442c      	add	r4, r5
 8002126:	2b00      	cmp	r3, #0
 8002128:	f000 80a8 	beq.w	800227c <USB_EPStartXfer+0x184>
 800212c:	2b3e      	cmp	r3, #62	; 0x3e
 800212e:	f200 80c9 	bhi.w	80022c4 <USB_EPStartXfer+0x1cc>
 8002132:	085d      	lsrs	r5, r3, #1
 8002134:	07db      	lsls	r3, r3, #31
 8002136:	bf48      	it	mi
 8002138:	3501      	addmi	r5, #1
 800213a:	02ad      	lsls	r5, r5, #10
 800213c:	b2ad      	uxth	r5, r5
 800213e:	52a5      	strh	r5, [r4, r2]
 8002140:	780a      	ldrb	r2, [r1, #0]
 8002142:	f830 1022 	ldrh.w	r1, [r0, r2, lsl #2]
 8002146:	4b7d      	ldr	r3, [pc, #500]	; (800233c <USB_EPStartXfer+0x244>)
 8002148:	bcf0      	pop	{r4, r5, r6, r7}
 800214a:	400b      	ands	r3, r1
 800214c:	f483 5340 	eor.w	r3, r3, #12288	; 0x3000
 8002150:	f443 4300 	orr.w	r3, r3, #32768	; 0x8000
 8002154:	f043 0380 	orr.w	r3, r3, #128	; 0x80
 8002158:	f820 3022 	strh.w	r3, [r0, r2, lsl #2]
 800215c:	2000      	movs	r0, #0
 800215e:	4770      	bx	lr
 8002160:	2c00      	cmp	r4, #0
 8002162:	d1ee      	bne.n	8002142 <USB_EPStartXfer+0x4a>
 8002164:	f8b0 5050 	ldrh.w	r5, [r0, #80]	; 0x50
 8002168:	f200 4404 	addw	r4, r0, #1028	; 0x404
 800216c:	0112      	lsls	r2, r2, #4
 800216e:	442c      	add	r4, r5
 8002170:	2b00      	cmp	r3, #0
 8002172:	f040 80b3 	bne.w	80022dc <USB_EPStartXfer+0x1e4>
 8002176:	5aa5      	ldrh	r5, [r4, r2]
 8002178:	4e71      	ldr	r6, [pc, #452]	; (8002340 <USB_EPStartXfer+0x248>)
 800217a:	f425 45f8 	bic.w	r5, r5, #31744	; 0x7c00
 800217e:	042d      	lsls	r5, r5, #16
 8002180:	0c2d      	lsrs	r5, r5, #16
 8002182:	52a5      	strh	r5, [r4, r2]
 8002184:	5aa5      	ldrh	r5, [r4, r2]
 8002186:	f445 4500 	orr.w	r5, r5, #32768	; 0x8000
 800218a:	52a5      	strh	r5, [r4, r2]
 800218c:	784c      	ldrb	r4, [r1, #1]
 800218e:	2c00      	cmp	r4, #0
 8002190:	f040 80af 	bne.w	80022f2 <USB_EPStartXfer+0x1fa>
 8002194:	f8b0 3050 	ldrh.w	r3, [r0, #80]	; 0x50
 8002198:	780a      	ldrb	r2, [r1, #0]
 800219a:	f200 440c 	addw	r4, r0, #1036	; 0x40c
 800219e:	0112      	lsls	r2, r2, #4
 80021a0:	441c      	add	r4, r3
 80021a2:	5aa3      	ldrh	r3, [r4, r2]
 80021a4:	f423 43f8 	bic.w	r3, r3, #31744	; 0x7c00
 80021a8:	041b      	lsls	r3, r3, #16
 80021aa:	0c1b      	lsrs	r3, r3, #16
 80021ac:	52a3      	strh	r3, [r4, r2]
 80021ae:	5aa3      	ldrh	r3, [r4, r2]
 80021b0:	4333      	orrs	r3, r6
 80021b2:	b29b      	uxth	r3, r3
 80021b4:	52a3      	strh	r3, [r4, r2]
 80021b6:	780a      	ldrb	r2, [r1, #0]
 80021b8:	e7c3      	b.n	8002142 <USB_EPStartXfer+0x4a>
 80021ba:	4293      	cmp	r3, r2
 80021bc:	bf86      	itte	hi
 80021be:	1a9c      	subhi	r4, r3, r2
 80021c0:	4613      	movhi	r3, r2
 80021c2:	2400      	movls	r4, #0
 80021c4:	b29a      	uxth	r2, r3
 80021c6:	7b0d      	ldrb	r5, [r1, #12]
 80021c8:	3201      	adds	r2, #1
 80021ca:	0856      	lsrs	r6, r2, #1
 80021cc:	618c      	str	r4, [r1, #24]
 80021ce:	b29b      	uxth	r3, r3
 80021d0:	694a      	ldr	r2, [r1, #20]
 80021d2:	f500 6780 	add.w	r7, r0, #1024	; 0x400
 80021d6:	b36d      	cbz	r5, 8002234 <USB_EPStartXfer+0x13c>
 80021d8:	780d      	ldrb	r5, [r1, #0]
 80021da:	f830 4025 	ldrh.w	r4, [r0, r5, lsl #2]
 80021de:	012d      	lsls	r5, r5, #4
 80021e0:	0664      	lsls	r4, r4, #25
 80021e2:	f8b0 c050 	ldrh.w	ip, [r0, #80]	; 0x50
 80021e6:	d555      	bpl.n	8002294 <USB_EPStartXfer+0x19c>
 80021e8:	f200 440c 	addw	r4, r0, #1036	; 0x40c
 80021ec:	4464      	add	r4, ip
 80021ee:	5363      	strh	r3, [r4, r5]
 80021f0:	894c      	ldrh	r4, [r1, #10]
 80021f2:	eb07 0444 	add.w	r4, r7, r4, lsl #1
 80021f6:	b13e      	cbz	r6, 8002208 <USB_EPStartXfer+0x110>
 80021f8:	eb02 0346 	add.w	r3, r2, r6, lsl #1
 80021fc:	f832 5b02 	ldrh.w	r5, [r2], #2
 8002200:	4293      	cmp	r3, r2
 8002202:	f824 5b04 	strh.w	r5, [r4], #4
 8002206:	d1f9      	bne.n	80021fc <USB_EPStartXfer+0x104>
 8002208:	780c      	ldrb	r4, [r1, #0]
 800220a:	784b      	ldrb	r3, [r1, #1]
 800220c:	eb00 0284 	add.w	r2, r0, r4, lsl #2
 8002210:	2b00      	cmp	r3, #0
 8002212:	d145      	bne.n	80022a0 <USB_EPStartXfer+0x1a8>
 8002214:	f830 3024 	ldrh.w	r3, [r0, r4, lsl #2]
 8002218:	f023 03f0 	bic.w	r3, r3, #240	; 0xf0
 800221c:	051b      	lsls	r3, r3, #20
 800221e:	0d1b      	lsrs	r3, r3, #20
 8002220:	f443 4300 	orr.w	r3, r3, #32768	; 0x8000
 8002224:	f043 03c0 	orr.w	r3, r3, #192	; 0xc0
 8002228:	f820 3024 	strh.w	r3, [r0, r4, lsl #2]
 800222c:	780a      	ldrb	r2, [r1, #0]
 800222e:	eb00 0282 	add.w	r2, r0, r2, lsl #2
 8002232:	e016      	b.n	8002262 <USB_EPStartXfer+0x16a>
 8002234:	88cc      	ldrh	r4, [r1, #6]
 8002236:	eb07 0444 	add.w	r4, r7, r4, lsl #1
 800223a:	b13e      	cbz	r6, 800224c <USB_EPStartXfer+0x154>
 800223c:	eb04 0686 	add.w	r6, r4, r6, lsl #2
 8002240:	f832 5b02 	ldrh.w	r5, [r2], #2
 8002244:	f824 5b04 	strh.w	r5, [r4], #4
 8002248:	42a6      	cmp	r6, r4
 800224a:	d1f9      	bne.n	8002240 <USB_EPStartXfer+0x148>
 800224c:	f8b0 5050 	ldrh.w	r5, [r0, #80]	; 0x50
 8002250:	780c      	ldrb	r4, [r1, #0]
 8002252:	f200 4204 	addw	r2, r0, #1028	; 0x404
 8002256:	442a      	add	r2, r5
 8002258:	0124      	lsls	r4, r4, #4
 800225a:	52a3      	strh	r3, [r4, r2]
 800225c:	780a      	ldrb	r2, [r1, #0]
 800225e:	eb00 0282 	add.w	r2, r0, r2, lsl #2
 8002262:	8811      	ldrh	r1, [r2, #0]
 8002264:	4b37      	ldr	r3, [pc, #220]	; (8002344 <USB_EPStartXfer+0x24c>)
 8002266:	2000      	movs	r0, #0
 8002268:	bcf0      	pop	{r4, r5, r6, r7}
 800226a:	400b      	ands	r3, r1
 800226c:	f083 0330 	eor.w	r3, r3, #48	; 0x30
 8002270:	f443 4300 	orr.w	r3, r3, #32768	; 0x8000
 8002274:	f043 0380 	orr.w	r3, r3, #128	; 0x80
 8002278:	8013      	strh	r3, [r2, #0]
 800227a:	4770      	bx	lr
 800227c:	5aa3      	ldrh	r3, [r4, r2]
 800227e:	f423 43f8 	bic.w	r3, r3, #31744	; 0x7c00
 8002282:	041b      	lsls	r3, r3, #16
 8002284:	0c1b      	lsrs	r3, r3, #16
 8002286:	52a3      	strh	r3, [r4, r2]
 8002288:	5aa3      	ldrh	r3, [r4, r2]
 800228a:	f443 4300 	orr.w	r3, r3, #32768	; 0x8000
 800228e:	52a3      	strh	r3, [r4, r2]
 8002290:	780a      	ldrb	r2, [r1, #0]
 8002292:	e756      	b.n	8002142 <USB_EPStartXfer+0x4a>
 8002294:	f200 4404 	addw	r4, r0, #1028	; 0x404
 8002298:	4464      	add	r4, ip
 800229a:	5363      	strh	r3, [r4, r5]
 800229c:	890c      	ldrh	r4, [r1, #8]
 800229e:	e7a8      	b.n	80021f2 <USB_EPStartXfer+0xfa>
 80022a0:	2b01      	cmp	r3, #1
 80022a2:	d1de      	bne.n	8002262 <USB_EPStartXfer+0x16a>
 80022a4:	f830 3024 	ldrh.w	r3, [r0, r4, lsl #2]
 80022a8:	f023 03f0 	bic.w	r3, r3, #240	; 0xf0
 80022ac:	051b      	lsls	r3, r3, #20
 80022ae:	0d1b      	lsrs	r3, r3, #20
 80022b0:	f443 4340 	orr.w	r3, r3, #49152	; 0xc000
 80022b4:	f043 0380 	orr.w	r3, r3, #128	; 0x80
 80022b8:	f820 3024 	strh.w	r3, [r0, r4, lsl #2]
 80022bc:	780a      	ldrb	r2, [r1, #0]
 80022be:	eb00 0282 	add.w	r2, r0, r2, lsl #2
 80022c2:	e7ce      	b.n	8002262 <USB_EPStartXfer+0x16a>
 80022c4:	095d      	lsrs	r5, r3, #5
 80022c6:	06df      	lsls	r7, r3, #27
 80022c8:	4b1d      	ldr	r3, [pc, #116]	; (8002340 <USB_EPStartXfer+0x248>)
 80022ca:	bf08      	it	eq
 80022cc:	f105 35ff 	addeq.w	r5, r5, #4294967295
 80022d0:	ea43 2385 	orr.w	r3, r3, r5, lsl #10
 80022d4:	b29b      	uxth	r3, r3
 80022d6:	52a3      	strh	r3, [r4, r2]
 80022d8:	780a      	ldrb	r2, [r1, #0]
 80022da:	e732      	b.n	8002142 <USB_EPStartXfer+0x4a>
 80022dc:	2b3e      	cmp	r3, #62	; 0x3e
 80022de:	d816      	bhi.n	800230e <USB_EPStartXfer+0x216>
 80022e0:	085d      	lsrs	r5, r3, #1
 80022e2:	07de      	lsls	r6, r3, #31
 80022e4:	bf48      	it	mi
 80022e6:	3501      	addmi	r5, #1
 80022e8:	02ad      	lsls	r5, r5, #10
 80022ea:	b2ad      	uxth	r5, r5
 80022ec:	52a5      	strh	r5, [r4, r2]
 80022ee:	784c      	ldrb	r4, [r1, #1]
 80022f0:	b1d4      	cbz	r4, 8002328 <USB_EPStartXfer+0x230>
 80022f2:	2c01      	cmp	r4, #1
 80022f4:	780a      	ldrb	r2, [r1, #0]
 80022f6:	f47f af24 	bne.w	8002142 <USB_EPStartXfer+0x4a>
 80022fa:	f8b0 5050 	ldrh.w	r5, [r0, #80]	; 0x50
 80022fe:	f200 440c 	addw	r4, r0, #1036	; 0x40c
 8002302:	0112      	lsls	r2, r2, #4
 8002304:	b29b      	uxth	r3, r3
 8002306:	442c      	add	r4, r5
 8002308:	52a3      	strh	r3, [r4, r2]
 800230a:	780a      	ldrb	r2, [r1, #0]
 800230c:	e719      	b.n	8002142 <USB_EPStartXfer+0x4a>
 800230e:	095e      	lsrs	r6, r3, #5
 8002310:	06dd      	lsls	r5, r3, #27
 8002312:	4d0b      	ldr	r5, [pc, #44]	; (8002340 <USB_EPStartXfer+0x248>)
 8002314:	bf08      	it	eq
 8002316:	f106 36ff 	addeq.w	r6, r6, #4294967295
 800231a:	ea45 2586 	orr.w	r5, r5, r6, lsl #10
 800231e:	b2ad      	uxth	r5, r5
 8002320:	52a5      	strh	r5, [r4, r2]
 8002322:	784c      	ldrb	r4, [r1, #1]
 8002324:	2c00      	cmp	r4, #0
 8002326:	d1e4      	bne.n	80022f2 <USB_EPStartXfer+0x1fa>
 8002328:	f8b0 4050 	ldrh.w	r4, [r0, #80]	; 0x50
 800232c:	780b      	ldrb	r3, [r1, #0]
 800232e:	f200 420c 	addw	r2, r0, #1036	; 0x40c
 8002332:	4422      	add	r2, r4
 8002334:	011b      	lsls	r3, r3, #4
 8002336:	52d5      	strh	r5, [r2, r3]
 8002338:	780a      	ldrb	r2, [r1, #0]
 800233a:	e702      	b.n	8002142 <USB_EPStartXfer+0x4a>
 800233c:	ffffbf8f 	.word	0xffffbf8f
 8002340:	ffff8000 	.word	0xffff8000
 8002344:	ffff8fbf 	.word	0xffff8fbf

08002348 <USB_EPSetStall>:
 8002348:	784b      	ldrb	r3, [r1, #1]
 800234a:	780a      	ldrb	r2, [r1, #0]
 800234c:	f830 1022 	ldrh.w	r1, [r0, r2, lsl #2]
 8002350:	b95b      	cbnz	r3, 800236a <USB_EPSetStall+0x22>
 8002352:	4b0c      	ldr	r3, [pc, #48]	; (8002384 <USB_EPSetStall+0x3c>)
 8002354:	400b      	ands	r3, r1
 8002356:	f483 5380 	eor.w	r3, r3, #4096	; 0x1000
 800235a:	f443 4300 	orr.w	r3, r3, #32768	; 0x8000
 800235e:	f043 0380 	orr.w	r3, r3, #128	; 0x80
 8002362:	f820 3022 	strh.w	r3, [r0, r2, lsl #2]
 8002366:	2000      	movs	r0, #0
 8002368:	4770      	bx	lr
 800236a:	4b07      	ldr	r3, [pc, #28]	; (8002388 <USB_EPSetStall+0x40>)
 800236c:	400b      	ands	r3, r1
 800236e:	f083 0310 	eor.w	r3, r3, #16
 8002372:	f443 4300 	orr.w	r3, r3, #32768	; 0x8000
 8002376:	f043 0380 	orr.w	r3, r3, #128	; 0x80
 800237a:	f820 3022 	strh.w	r3, [r0, r2, lsl #2]
 800237e:	2000      	movs	r0, #0
 8002380:	4770      	bx	lr
 8002382:	bf00      	nop
 8002384:	ffffbf8f 	.word	0xffffbf8f
 8002388:	ffff8fbf 	.word	0xffff8fbf

0800238c <USB_EPClearStall>:
 800238c:	7b0b      	ldrb	r3, [r1, #12]
 800238e:	2b00      	cmp	r3, #0
 8002390:	d139      	bne.n	8002406 <USB_EPClearStall+0x7a>
 8002392:	b410      	push	{r4}
 8002394:	780b      	ldrb	r3, [r1, #0]
 8002396:	784c      	ldrb	r4, [r1, #1]
 8002398:	eb00 0283 	add.w	r2, r0, r3, lsl #2
 800239c:	b314      	cbz	r4, 80023e4 <USB_EPClearStall+0x58>
 800239e:	f830 2023 	ldrh.w	r2, [r0, r3, lsl #2]
 80023a2:	0652      	lsls	r2, r2, #25
 80023a4:	d50b      	bpl.n	80023be <USB_EPClearStall+0x32>
 80023a6:	f830 2023 	ldrh.w	r2, [r0, r3, lsl #2]
 80023aa:	f022 02f0 	bic.w	r2, r2, #240	; 0xf0
 80023ae:	0512      	lsls	r2, r2, #20
 80023b0:	0d12      	lsrs	r2, r2, #20
 80023b2:	f442 4200 	orr.w	r2, r2, #32768	; 0x8000
 80023b6:	f042 02c0 	orr.w	r2, r2, #192	; 0xc0
 80023ba:	f820 2023 	strh.w	r2, [r0, r3, lsl #2]
 80023be:	78cb      	ldrb	r3, [r1, #3]
 80023c0:	2b01      	cmp	r3, #1
 80023c2:	d01d      	beq.n	8002400 <USB_EPClearStall+0x74>
 80023c4:	780a      	ldrb	r2, [r1, #0]
 80023c6:	4b19      	ldr	r3, [pc, #100]	; (800242c <USB_EPClearStall+0xa0>)
 80023c8:	f830 1022 	ldrh.w	r1, [r0, r2, lsl #2]
 80023cc:	bc10      	pop	{r4}
 80023ce:	400b      	ands	r3, r1
 80023d0:	f083 0320 	eor.w	r3, r3, #32
 80023d4:	f443 4300 	orr.w	r3, r3, #32768	; 0x8000
 80023d8:	f043 0380 	orr.w	r3, r3, #128	; 0x80
 80023dc:	f820 3022 	strh.w	r3, [r0, r2, lsl #2]
 80023e0:	2000      	movs	r0, #0
 80023e2:	4770      	bx	lr
 80023e4:	f830 4023 	ldrh.w	r4, [r0, r3, lsl #2]
 80023e8:	0464      	lsls	r4, r4, #17
 80023ea:	d40e      	bmi.n	800240a <USB_EPClearStall+0x7e>
 80023ec:	8811      	ldrh	r1, [r2, #0]
 80023ee:	4b10      	ldr	r3, [pc, #64]	; (8002430 <USB_EPClearStall+0xa4>)
 80023f0:	400b      	ands	r3, r1
 80023f2:	f483 5340 	eor.w	r3, r3, #12288	; 0x3000
 80023f6:	f443 4300 	orr.w	r3, r3, #32768	; 0x8000
 80023fa:	f043 0380 	orr.w	r3, r3, #128	; 0x80
 80023fe:	8013      	strh	r3, [r2, #0]
 8002400:	2000      	movs	r0, #0
 8002402:	bc10      	pop	{r4}
 8002404:	4770      	bx	lr
 8002406:	2000      	movs	r0, #0
 8002408:	4770      	bx	lr
 800240a:	f830 2023 	ldrh.w	r2, [r0, r3, lsl #2]
 800240e:	f022 02f0 	bic.w	r2, r2, #240	; 0xf0
 8002412:	0512      	lsls	r2, r2, #20
 8002414:	0d12      	lsrs	r2, r2, #20
 8002416:	f442 4240 	orr.w	r2, r2, #49152	; 0xc000
 800241a:	f042 0280 	orr.w	r2, r2, #128	; 0x80
 800241e:	f820 2023 	strh.w	r2, [r0, r3, lsl #2]
 8002422:	780a      	ldrb	r2, [r1, #0]
 8002424:	eb00 0282 	add.w	r2, r0, r2, lsl #2
 8002428:	e7e0      	b.n	80023ec <USB_EPClearStall+0x60>
 800242a:	bf00      	nop
 800242c:	ffff8fbf 	.word	0xffff8fbf
 8002430:	ffffbf8f 	.word	0xffffbf8f

08002434 <USB_SetDevAddress>:
 8002434:	b911      	cbnz	r1, 800243c <USB_SetDevAddress+0x8>
 8002436:	2380      	movs	r3, #128	; 0x80
 8002438:	f8a0 304c 	strh.w	r3, [r0, #76]	; 0x4c
 800243c:	2000      	movs	r0, #0
 800243e:	4770      	bx	lr

08002440 <USB_DevConnect>:
 8002440:	2000      	movs	r0, #0
 8002442:	4770      	bx	lr

08002444 <USB_DevDisconnect>:
 8002444:	2000      	movs	r0, #0
 8002446:	4770      	bx	lr

08002448 <USB_ReadInterrupts>:
 8002448:	f8b0 0044 	ldrh.w	r0, [r0, #68]	; 0x44
 800244c:	4770      	bx	lr
 800244e:	bf00      	nop

08002450 <USB_EP0_OutStart>:
 8002450:	2000      	movs	r0, #0
 8002452:	4770      	bx	lr

08002454 <USB_ReadPMA>:
 8002454:	eb00 0242 	add.w	r2, r0, r2, lsl #1
 8002458:	0858      	lsrs	r0, r3, #1
 800245a:	f502 6280 	add.w	r2, r2, #1024	; 0x400
 800245e:	d01a      	beq.n	8002496 <USB_ReadPMA+0x42>
 8002460:	b4f0      	push	{r4, r5, r6, r7}
 8002462:	4617      	mov	r7, r2
 8002464:	4606      	mov	r6, r0
 8002466:	1c8d      	adds	r5, r1, #2
 8002468:	f837 4b04 	ldrh.w	r4, [r7], #4
 800246c:	3e01      	subs	r6, #1
 800246e:	b2a4      	uxth	r4, r4
 8002470:	ea4f 2c14 	mov.w	ip, r4, lsr #8
 8002474:	f805 4c02 	strb.w	r4, [r5, #-2]
 8002478:	f805 cc01 	strb.w	ip, [r5, #-1]
 800247c:	f105 0502 	add.w	r5, r5, #2
 8002480:	d1f2      	bne.n	8002468 <USB_ReadPMA+0x14>
 8002482:	bcf0      	pop	{r4, r5, r6, r7}
 8002484:	eb01 0140 	add.w	r1, r1, r0, lsl #1
 8002488:	eb02 0280 	add.w	r2, r2, r0, lsl #2
 800248c:	07d8      	lsls	r0, r3, #31
 800248e:	bf44      	itt	mi
 8002490:	8813      	ldrhmi	r3, [r2, #0]
 8002492:	700b      	strbmi	r3, [r1, #0]
 8002494:	4770      	bx	lr
 8002496:	07db      	lsls	r3, r3, #31
 8002498:	bf44      	itt	mi
 800249a:	8813      	ldrhmi	r3, [r2, #0]
 800249c:	700b      	strbmi	r3, [r1, #0]
 800249e:	4770      	bx	lr

080024a0 <USBD_CUSTOM_HID_GetFSCfgDesc>:
 80024a0:	2329      	movs	r3, #41	; 0x29
 80024a2:	8003      	strh	r3, [r0, #0]
 80024a4:	4800      	ldr	r0, [pc, #0]	; (80024a8 <USBD_CUSTOM_HID_GetFSCfgDesc+0x8>)
 80024a6:	4770      	bx	lr
 80024a8:	20000040 	.word	0x20000040

080024ac <USBD_CUSTOM_HID_GetHSCfgDesc>:
 80024ac:	2329      	movs	r3, #41	; 0x29
 80024ae:	8003      	strh	r3, [r0, #0]
 80024b0:	4800      	ldr	r0, [pc, #0]	; (80024b4 <USBD_CUSTOM_HID_GetHSCfgDesc+0x8>)
 80024b2:	4770      	bx	lr
 80024b4:	2000006c 	.word	0x2000006c

080024b8 <USBD_CUSTOM_HID_GetOtherSpeedCfgDesc>:
 80024b8:	2329      	movs	r3, #41	; 0x29
 80024ba:	8003      	strh	r3, [r0, #0]
 80024bc:	4800      	ldr	r0, [pc, #0]	; (80024c0 <USBD_CUSTOM_HID_GetOtherSpeedCfgDesc+0x8>)
 80024be:	4770      	bx	lr
 80024c0:	200000c8 	.word	0x200000c8

080024c4 <USBD_CUSTOM_HID_DataIn>:
 80024c4:	2300      	movs	r3, #0
 80024c6:	f8d0 22b8 	ldr.w	r2, [r0, #696]	; 0x2b8
 80024ca:	4618      	mov	r0, r3
 80024cc:	f882 3050 	strb.w	r3, [r2, #80]	; 0x50
 80024d0:	4770      	bx	lr
 80024d2:	bf00      	nop

080024d4 <USBD_CUSTOM_HID_EP0_RxReady>:
 80024d4:	b510      	push	{r4, lr}
 80024d6:	f8d0 42b8 	ldr.w	r4, [r0, #696]	; 0x2b8
 80024da:	6ce3      	ldr	r3, [r4, #76]	; 0x4c
 80024dc:	2b01      	cmp	r3, #1
 80024de:	d107      	bne.n	80024f0 <USBD_CUSTOM_HID_EP0_RxReady+0x1c>
 80024e0:	f8d0 32bc 	ldr.w	r3, [r0, #700]	; 0x2bc
 80024e4:	7861      	ldrb	r1, [r4, #1]
 80024e6:	68db      	ldr	r3, [r3, #12]
 80024e8:	7820      	ldrb	r0, [r4, #0]
 80024ea:	4798      	blx	r3
 80024ec:	2300      	movs	r3, #0
 80024ee:	64e3      	str	r3, [r4, #76]	; 0x4c
 80024f0:	2000      	movs	r0, #0
 80024f2:	bd10      	pop	{r4, pc}

080024f4 <USBD_CUSTOM_HID_GetDeviceQualifierDesc>:
 80024f4:	230a      	movs	r3, #10
 80024f6:	8003      	strh	r3, [r0, #0]
 80024f8:	4800      	ldr	r0, [pc, #0]	; (80024fc <USBD_CUSTOM_HID_GetDeviceQualifierDesc+0x8>)
 80024fa:	4770      	bx	lr
 80024fc:	200000bc 	.word	0x200000bc

08002500 <USBD_CUSTOM_HID_DataOut>:
 8002500:	b538      	push	{r3, r4, r5, lr}
 8002502:	4604      	mov	r4, r0
 8002504:	f8d0 52b8 	ldr.w	r5, [r0, #696]	; 0x2b8
 8002508:	f8d0 32bc 	ldr.w	r3, [r0, #700]	; 0x2bc
 800250c:	7869      	ldrb	r1, [r5, #1]
 800250e:	7828      	ldrb	r0, [r5, #0]
 8002510:	68db      	ldr	r3, [r3, #12]
 8002512:	4798      	blx	r3
 8002514:	462a      	mov	r2, r5
 8002516:	4620      	mov	r0, r4
 8002518:	2340      	movs	r3, #64	; 0x40
 800251a:	2101      	movs	r1, #1
 800251c:	f001 fbfc 	bl	8003d18 <USBD_LL_PrepareReceive>
 8002520:	2000      	movs	r0, #0
 8002522:	bd38      	pop	{r3, r4, r5, pc}

08002524 <USBD_CUSTOM_HID_Setup>:
 8002524:	2200      	movs	r2, #0
 8002526:	b510      	push	{r4, lr}
 8002528:	780b      	ldrb	r3, [r1, #0]
 800252a:	b082      	sub	sp, #8
 800252c:	f013 0360 	ands.w	r3, r3, #96	; 0x60
 8002530:	f8d0 42b8 	ldr.w	r4, [r0, #696]	; 0x2b8
 8002534:	f8ad 2006 	strh.w	r2, [sp, #6]
 8002538:	d022      	beq.n	8002580 <USBD_CUSTOM_HID_Setup+0x5c>
 800253a:	2b20      	cmp	r3, #32
 800253c:	d004      	beq.n	8002548 <USBD_CUSTOM_HID_Setup+0x24>
 800253e:	f000 fca3 	bl	8002e88 <USBD_CtlError>
 8002542:	2002      	movs	r0, #2
 8002544:	b002      	add	sp, #8
 8002546:	bd10      	pop	{r4, pc}
 8002548:	784b      	ldrb	r3, [r1, #1]
 800254a:	3b02      	subs	r3, #2
 800254c:	2b09      	cmp	r3, #9
 800254e:	d8f6      	bhi.n	800253e <USBD_CUSTOM_HID_Setup+0x1a>
 8002550:	a201      	add	r2, pc, #4	; (adr r2, 8002558 <USBD_CUSTOM_HID_Setup+0x34>)
 8002552:	f852 f023 	ldr.w	pc, [r2, r3, lsl #2]
 8002556:	bf00      	nop
 8002558:	0800263d 	.word	0x0800263d
 800255c:	0800262f 	.word	0x0800262f
 8002560:	0800253f 	.word	0x0800253f
 8002564:	0800253f 	.word	0x0800253f
 8002568:	0800253f 	.word	0x0800253f
 800256c:	0800253f 	.word	0x0800253f
 8002570:	0800253f 	.word	0x0800253f
 8002574:	0800261f 	.word	0x0800261f
 8002578:	08002615 	.word	0x08002615
 800257c:	0800260d 	.word	0x0800260d
 8002580:	784b      	ldrb	r3, [r1, #1]
 8002582:	2b0b      	cmp	r3, #11
 8002584:	d8db      	bhi.n	800253e <USBD_CUSTOM_HID_Setup+0x1a>
 8002586:	a201      	add	r2, pc, #4	; (adr r2, 800258c <USBD_CUSTOM_HID_Setup+0x68>)
 8002588:	f852 f023 	ldr.w	pc, [r2, r3, lsl #2]
 800258c:	080025f7 	.word	0x080025f7
 8002590:	0800253f 	.word	0x0800253f
 8002594:	0800253f 	.word	0x0800253f
 8002598:	0800253f 	.word	0x0800253f
 800259c:	0800253f 	.word	0x0800253f
 80025a0:	0800253f 	.word	0x0800253f
 80025a4:	080025dd 	.word	0x080025dd
 80025a8:	0800253f 	.word	0x0800253f
 80025ac:	0800253f 	.word	0x0800253f
 80025b0:	0800253f 	.word	0x0800253f
 80025b4:	080025cd 	.word	0x080025cd
 80025b8:	080025bd 	.word	0x080025bd
 80025bc:	f890 329c 	ldrb.w	r3, [r0, #668]	; 0x29c
 80025c0:	2b03      	cmp	r3, #3
 80025c2:	d1bc      	bne.n	800253e <USBD_CUSTOM_HID_Setup+0x1a>
 80025c4:	788b      	ldrb	r3, [r1, #2]
 80025c6:	2000      	movs	r0, #0
 80025c8:	64a3      	str	r3, [r4, #72]	; 0x48
 80025ca:	e7bb      	b.n	8002544 <USBD_CUSTOM_HID_Setup+0x20>
 80025cc:	f890 329c 	ldrb.w	r3, [r0, #668]	; 0x29c
 80025d0:	2b03      	cmp	r3, #3
 80025d2:	d1b4      	bne.n	800253e <USBD_CUSTOM_HID_Setup+0x1a>
 80025d4:	f104 0148 	add.w	r1, r4, #72	; 0x48
 80025d8:	2201      	movs	r2, #1
 80025da:	e007      	b.n	80025ec <USBD_CUSTOM_HID_Setup+0xc8>
 80025dc:	884b      	ldrh	r3, [r1, #2]
 80025de:	0a1b      	lsrs	r3, r3, #8
 80025e0:	2b22      	cmp	r3, #34	; 0x22
 80025e2:	d032      	beq.n	800264a <USBD_CUSTOM_HID_Setup+0x126>
 80025e4:	2b21      	cmp	r3, #33	; 0x21
 80025e6:	d038      	beq.n	800265a <USBD_CUSTOM_HID_Setup+0x136>
 80025e8:	2100      	movs	r1, #0
 80025ea:	460a      	mov	r2, r1
 80025ec:	f000 fc7e 	bl	8002eec <USBD_CtlSendData>
 80025f0:	2000      	movs	r0, #0
 80025f2:	b002      	add	sp, #8
 80025f4:	bd10      	pop	{r4, pc}
 80025f6:	f890 329c 	ldrb.w	r3, [r0, #668]	; 0x29c
 80025fa:	2b03      	cmp	r3, #3
 80025fc:	d19f      	bne.n	800253e <USBD_CUSTOM_HID_Setup+0x1a>
 80025fe:	2202      	movs	r2, #2
 8002600:	f10d 0106 	add.w	r1, sp, #6
 8002604:	f000 fc72 	bl	8002eec <USBD_CtlSendData>
 8002608:	2000      	movs	r0, #0
 800260a:	e79b      	b.n	8002544 <USBD_CUSTOM_HID_Setup+0x20>
 800260c:	788b      	ldrb	r3, [r1, #2]
 800260e:	2000      	movs	r0, #0
 8002610:	6423      	str	r3, [r4, #64]	; 0x40
 8002612:	e797      	b.n	8002544 <USBD_CUSTOM_HID_Setup+0x20>
 8002614:	884b      	ldrh	r3, [r1, #2]
 8002616:	2000      	movs	r0, #0
 8002618:	0a1b      	lsrs	r3, r3, #8
 800261a:	6463      	str	r3, [r4, #68]	; 0x44
 800261c:	e792      	b.n	8002544 <USBD_CUSTOM_HID_Setup+0x20>
 800261e:	2301      	movs	r3, #1
 8002620:	88ca      	ldrh	r2, [r1, #6]
 8002622:	64e3      	str	r3, [r4, #76]	; 0x4c
 8002624:	4621      	mov	r1, r4
 8002626:	f000 fc77 	bl	8002f18 <USBD_CtlPrepareRx>
 800262a:	2000      	movs	r0, #0
 800262c:	e78a      	b.n	8002544 <USBD_CUSTOM_HID_Setup+0x20>
 800262e:	f104 0140 	add.w	r1, r4, #64	; 0x40
 8002632:	2201      	movs	r2, #1
 8002634:	f000 fc5a 	bl	8002eec <USBD_CtlSendData>
 8002638:	2000      	movs	r0, #0
 800263a:	e783      	b.n	8002544 <USBD_CUSTOM_HID_Setup+0x20>
 800263c:	f104 0144 	add.w	r1, r4, #68	; 0x44
 8002640:	2201      	movs	r2, #1
 8002642:	f000 fc53 	bl	8002eec <USBD_CtlSendData>
 8002646:	2000      	movs	r0, #0
 8002648:	e77c      	b.n	8002544 <USBD_CUSTOM_HID_Setup+0x20>
 800264a:	88ca      	ldrh	r2, [r1, #6]
 800264c:	f8d0 32bc 	ldr.w	r3, [r0, #700]	; 0x2bc
 8002650:	2a21      	cmp	r2, #33	; 0x21
 8002652:	bf28      	it	cs
 8002654:	2221      	movcs	r2, #33	; 0x21
 8002656:	6819      	ldr	r1, [r3, #0]
 8002658:	e7c8      	b.n	80025ec <USBD_CUSTOM_HID_Setup+0xc8>
 800265a:	88ca      	ldrh	r2, [r1, #6]
 800265c:	4902      	ldr	r1, [pc, #8]	; (8002668 <USBD_CUSTOM_HID_Setup+0x144>)
 800265e:	2a21      	cmp	r2, #33	; 0x21
 8002660:	bf28      	it	cs
 8002662:	2221      	movcs	r2, #33	; 0x21
 8002664:	e7c2      	b.n	80025ec <USBD_CUSTOM_HID_Setup+0xc8>
 8002666:	bf00      	nop
 8002668:	20000098 	.word	0x20000098

0800266c <USBD_CUSTOM_HID_DeInit>:
 800266c:	b538      	push	{r3, r4, r5, lr}
 800266e:	4604      	mov	r4, r0
 8002670:	2500      	movs	r5, #0
 8002672:	2181      	movs	r1, #129	; 0x81
 8002674:	f001 fafa 	bl	8003c6c <USBD_LL_CloseEP>
 8002678:	62e5      	str	r5, [r4, #44]	; 0x2c
 800267a:	4620      	mov	r0, r4
 800267c:	2101      	movs	r1, #1
 800267e:	f001 faf5 	bl	8003c6c <USBD_LL_CloseEP>
 8002682:	f8d4 32b8 	ldr.w	r3, [r4, #696]	; 0x2b8
 8002686:	f8c4 516c 	str.w	r5, [r4, #364]	; 0x16c
 800268a:	b14b      	cbz	r3, 80026a0 <USBD_CUSTOM_HID_DeInit+0x34>
 800268c:	f8d4 32bc 	ldr.w	r3, [r4, #700]	; 0x2bc
 8002690:	689b      	ldr	r3, [r3, #8]
 8002692:	4798      	blx	r3
 8002694:	f8d4 02b8 	ldr.w	r0, [r4, #696]	; 0x2b8
 8002698:	f001 fb50 	bl	8003d3c <USBD_static_free>
 800269c:	f8c4 52b8 	str.w	r5, [r4, #696]	; 0x2b8
 80026a0:	2000      	movs	r0, #0
 80026a2:	bd38      	pop	{r3, r4, r5, pc}

080026a4 <USBD_CUSTOM_HID_Init>:
 80026a4:	b5f8      	push	{r3, r4, r5, r6, r7, lr}
 80026a6:	4604      	mov	r4, r0
 80026a8:	2501      	movs	r5, #1
 80026aa:	2340      	movs	r3, #64	; 0x40
 80026ac:	2203      	movs	r2, #3
 80026ae:	2181      	movs	r1, #129	; 0x81
 80026b0:	f001 facc 	bl	8003c4c <USBD_LL_OpenEP>
 80026b4:	4629      	mov	r1, r5
 80026b6:	2340      	movs	r3, #64	; 0x40
 80026b8:	2203      	movs	r2, #3
 80026ba:	62e5      	str	r5, [r4, #44]	; 0x2c
 80026bc:	4620      	mov	r0, r4
 80026be:	f001 fac5 	bl	8003c4c <USBD_LL_OpenEP>
 80026c2:	f8c4 516c 	str.w	r5, [r4, #364]	; 0x16c
 80026c6:	2054      	movs	r0, #84	; 0x54
 80026c8:	f001 fb34 	bl	8003d34 <USBD_static_malloc>
 80026cc:	f8c4 02b8 	str.w	r0, [r4, #696]	; 0x2b8
 80026d0:	b178      	cbz	r0, 80026f2 <USBD_CUSTOM_HID_Init+0x4e>
 80026d2:	2700      	movs	r7, #0
 80026d4:	4606      	mov	r6, r0
 80026d6:	f8d4 32bc 	ldr.w	r3, [r4, #700]	; 0x2bc
 80026da:	f880 7050 	strb.w	r7, [r0, #80]	; 0x50
 80026de:	685b      	ldr	r3, [r3, #4]
 80026e0:	4798      	blx	r3
 80026e2:	4632      	mov	r2, r6
 80026e4:	4629      	mov	r1, r5
 80026e6:	4620      	mov	r0, r4
 80026e8:	2340      	movs	r3, #64	; 0x40
 80026ea:	f001 fb15 	bl	8003d18 <USBD_LL_PrepareReceive>
 80026ee:	4638      	mov	r0, r7
 80026f0:	bdf8      	pop	{r3, r4, r5, r6, r7, pc}
 80026f2:	4628      	mov	r0, r5
 80026f4:	bdf8      	pop	{r3, r4, r5, r6, r7, pc}
 80026f6:	bf00      	nop

080026f8 <USBD_CUSTOM_HID_SendReport>:
 80026f8:	b538      	push	{r3, r4, r5, lr}
 80026fa:	f890 529c 	ldrb.w	r5, [r0, #668]	; 0x29c
 80026fe:	2d03      	cmp	r5, #3
 8002700:	d001      	beq.n	8002706 <USBD_CUSTOM_HID_SendReport+0xe>
 8002702:	2000      	movs	r0, #0
 8002704:	bd38      	pop	{r3, r4, r5, pc}
 8002706:	f8d0 52b8 	ldr.w	r5, [r0, #696]	; 0x2b8
 800270a:	f895 4050 	ldrb.w	r4, [r5, #80]	; 0x50
 800270e:	b10c      	cbz	r4, 8002714 <USBD_CUSTOM_HID_SendReport+0x1c>
 8002710:	2001      	movs	r0, #1
 8002712:	bd38      	pop	{r3, r4, r5, pc}
 8002714:	4613      	mov	r3, r2
 8002716:	460a      	mov	r2, r1
 8002718:	2101      	movs	r1, #1
 800271a:	f885 1050 	strb.w	r1, [r5, #80]	; 0x50
 800271e:	2181      	movs	r1, #129	; 0x81
 8002720:	f001 faec 	bl	8003cfc <USBD_LL_Transmit>
 8002724:	4620      	mov	r0, r4
 8002726:	bd38      	pop	{r3, r4, r5, pc}

08002728 <USBD_CUSTOM_HID_RegisterInterface>:
 8002728:	b119      	cbz	r1, 8002732 <USBD_CUSTOM_HID_RegisterInterface+0xa>
 800272a:	f8c0 12bc 	str.w	r1, [r0, #700]	; 0x2bc
 800272e:	2000      	movs	r0, #0
 8002730:	4770      	bx	lr
 8002732:	2002      	movs	r0, #2
 8002734:	4770      	bx	lr
 8002736:	bf00      	nop

08002738 <USBD_Init>:
 8002738:	b188      	cbz	r0, 800275e <USBD_Init+0x26>
 800273a:	b508      	push	{r3, lr}
 800273c:	f8d0 32b4 	ldr.w	r3, [r0, #692]	; 0x2b4
 8002740:	b113      	cbz	r3, 8002748 <USBD_Init+0x10>
 8002742:	2300      	movs	r3, #0
 8002744:	f8c0 32b4 	str.w	r3, [r0, #692]	; 0x2b4
 8002748:	b109      	cbz	r1, 800274e <USBD_Init+0x16>
 800274a:	f8c0 12b0 	str.w	r1, [r0, #688]	; 0x2b0
 800274e:	2301      	movs	r3, #1
 8002750:	7002      	strb	r2, [r0, #0]
 8002752:	f880 329c 	strb.w	r3, [r0, #668]	; 0x29c
 8002756:	f001 fa31 	bl	8003bbc <USBD_LL_Init>
 800275a:	2000      	movs	r0, #0
 800275c:	bd08      	pop	{r3, pc}
 800275e:	2002      	movs	r0, #2
 8002760:	4770      	bx	lr
 8002762:	bf00      	nop

08002764 <USBD_RegisterClass>:
 8002764:	b119      	cbz	r1, 800276e <USBD_RegisterClass+0xa>
 8002766:	f8c0 12b4 	str.w	r1, [r0, #692]	; 0x2b4
 800276a:	2000      	movs	r0, #0
 800276c:	4770      	bx	lr
 800276e:	2002      	movs	r0, #2
 8002770:	4770      	bx	lr
 8002772:	bf00      	nop

08002774 <USBD_Start>:
 8002774:	b508      	push	{r3, lr}
 8002776:	f001 fa5b 	bl	8003c30 <USBD_LL_Start>
 800277a:	2000      	movs	r0, #0
 800277c:	bd08      	pop	{r3, pc}
 800277e:	bf00      	nop

08002780 <USBD_SetClassConfig>:
 8002780:	b508      	push	{r3, lr}
 8002782:	f8d0 32b4 	ldr.w	r3, [r0, #692]	; 0x2b4
 8002786:	b11b      	cbz	r3, 8002790 <USBD_SetClassConfig+0x10>
 8002788:	681b      	ldr	r3, [r3, #0]
 800278a:	4798      	blx	r3
 800278c:	b900      	cbnz	r0, 8002790 <USBD_SetClassConfig+0x10>
 800278e:	bd08      	pop	{r3, pc}
 8002790:	2002      	movs	r0, #2
 8002792:	bd08      	pop	{r3, pc}

08002794 <USBD_ClrClassConfig>:
 8002794:	b508      	push	{r3, lr}
 8002796:	f8d0 32b4 	ldr.w	r3, [r0, #692]	; 0x2b4
 800279a:	685b      	ldr	r3, [r3, #4]
 800279c:	4798      	blx	r3
 800279e:	2000      	movs	r0, #0
 80027a0:	bd08      	pop	{r3, pc}
 80027a2:	bf00      	nop

080027a4 <USBD_LL_SetupStage>:
 80027a4:	b538      	push	{r3, r4, r5, lr}
 80027a6:	4604      	mov	r4, r0
 80027a8:	f500 752a 	add.w	r5, r0, #680	; 0x2a8
 80027ac:	4628      	mov	r0, r5
 80027ae:	f000 fb57 	bl	8002e60 <USBD_ParseSetupRequest>
 80027b2:	2001      	movs	r0, #1
 80027b4:	f894 12a8 	ldrb.w	r1, [r4, #680]	; 0x2a8
 80027b8:	f8b4 22ae 	ldrh.w	r2, [r4, #686]	; 0x2ae
 80027bc:	f001 031f 	and.w	r3, r1, #31
 80027c0:	4283      	cmp	r3, r0
 80027c2:	f8c4 0294 	str.w	r0, [r4, #660]	; 0x294
 80027c6:	f8c4 2298 	str.w	r2, [r4, #664]	; 0x298
 80027ca:	d015      	beq.n	80027f8 <USBD_LL_SetupStage+0x54>
 80027cc:	d30e      	bcc.n	80027ec <USBD_LL_SetupStage+0x48>
 80027ce:	2b02      	cmp	r3, #2
 80027d0:	d006      	beq.n	80027e0 <USBD_LL_SetupStage+0x3c>
 80027d2:	f001 0180 	and.w	r1, r1, #128	; 0x80
 80027d6:	4620      	mov	r0, r4
 80027d8:	f001 fa56 	bl	8003c88 <USBD_LL_StallEP>
 80027dc:	2000      	movs	r0, #0
 80027de:	bd38      	pop	{r3, r4, r5, pc}
 80027e0:	4629      	mov	r1, r5
 80027e2:	4620      	mov	r0, r4
 80027e4:	f000 faa6 	bl	8002d34 <USBD_StdEPReq>
 80027e8:	2000      	movs	r0, #0
 80027ea:	bd38      	pop	{r3, r4, r5, pc}
 80027ec:	4629      	mov	r1, r5
 80027ee:	4620      	mov	r0, r4
 80027f0:	f000 f8f6 	bl	80029e0 <USBD_StdDevReq>
 80027f4:	2000      	movs	r0, #0
 80027f6:	bd38      	pop	{r3, r4, r5, pc}
 80027f8:	4629      	mov	r1, r5
 80027fa:	4620      	mov	r0, r4
 80027fc:	f000 fa6e 	bl	8002cdc <USBD_StdItfReq>
 8002800:	2000      	movs	r0, #0
 8002802:	bd38      	pop	{r3, r4, r5, pc}

08002804 <USBD_LL_DataOutStage>:
 8002804:	b570      	push	{r4, r5, r6, lr}
 8002806:	4605      	mov	r5, r0
 8002808:	b941      	cbnz	r1, 800281c <USBD_LL_DataOutStage+0x18>
 800280a:	f8d0 3294 	ldr.w	r3, [r0, #660]	; 0x294
 800280e:	2b03      	cmp	r3, #3
 8002810:	d00f      	beq.n	8002832 <USBD_LL_DataOutStage+0x2e>
 8002812:	2b05      	cmp	r3, #5
 8002814:	460c      	mov	r4, r1
 8002816:	d02e      	beq.n	8002876 <USBD_LL_DataOutStage+0x72>
 8002818:	2000      	movs	r0, #0
 800281a:	bd70      	pop	{r4, r5, r6, pc}
 800281c:	f8d0 32b4 	ldr.w	r3, [r0, #692]	; 0x2b4
 8002820:	699b      	ldr	r3, [r3, #24]
 8002822:	b1c3      	cbz	r3, 8002856 <USBD_LL_DataOutStage+0x52>
 8002824:	f890 229c 	ldrb.w	r2, [r0, #668]	; 0x29c
 8002828:	2a03      	cmp	r2, #3
 800282a:	d114      	bne.n	8002856 <USBD_LL_DataOutStage+0x52>
 800282c:	4798      	blx	r3
 800282e:	2000      	movs	r0, #0
 8002830:	bd70      	pop	{r4, r5, r6, pc}
 8002832:	4616      	mov	r6, r2
 8002834:	f8d0 3160 	ldr.w	r3, [r0, #352]	; 0x160
 8002838:	f8d0 2164 	ldr.w	r2, [r0, #356]	; 0x164
 800283c:	4293      	cmp	r3, r2
 800283e:	d90c      	bls.n	800285a <USBD_LL_DataOutStage+0x56>
 8002840:	1a9b      	subs	r3, r3, r2
 8002842:	429a      	cmp	r2, r3
 8002844:	f8c0 3160 	str.w	r3, [r0, #352]	; 0x160
 8002848:	bf8c      	ite	hi
 800284a:	b29a      	uxthhi	r2, r3
 800284c:	b292      	uxthls	r2, r2
 800284e:	4631      	mov	r1, r6
 8002850:	f000 fb72 	bl	8002f38 <USBD_CtlContinueRx>
 8002854:	e7e0      	b.n	8002818 <USBD_LL_DataOutStage+0x14>
 8002856:	2002      	movs	r0, #2
 8002858:	bd70      	pop	{r4, r5, r6, pc}
 800285a:	f8d0 32b4 	ldr.w	r3, [r0, #692]	; 0x2b4
 800285e:	691b      	ldr	r3, [r3, #16]
 8002860:	b123      	cbz	r3, 800286c <USBD_LL_DataOutStage+0x68>
 8002862:	f890 229c 	ldrb.w	r2, [r0, #668]	; 0x29c
 8002866:	2a03      	cmp	r2, #3
 8002868:	d100      	bne.n	800286c <USBD_LL_DataOutStage+0x68>
 800286a:	4798      	blx	r3
 800286c:	4628      	mov	r0, r5
 800286e:	f000 fb6b 	bl	8002f48 <USBD_CtlSendStatus>
 8002872:	2000      	movs	r0, #0
 8002874:	bd70      	pop	{r4, r5, r6, pc}
 8002876:	f8c5 1294 	str.w	r1, [r5, #660]	; 0x294
 800287a:	f001 fa05 	bl	8003c88 <USBD_LL_StallEP>
 800287e:	4620      	mov	r0, r4
 8002880:	bd70      	pop	{r4, r5, r6, pc}
 8002882:	bf00      	nop

08002884 <USBD_LL_DataInStage>:
 8002884:	b570      	push	{r4, r5, r6, lr}
 8002886:	4604      	mov	r4, r0
 8002888:	b981      	cbnz	r1, 80028ac <USBD_LL_DataInStage+0x28>
 800288a:	4613      	mov	r3, r2
 800288c:	f8d0 2294 	ldr.w	r2, [r0, #660]	; 0x294
 8002890:	2a02      	cmp	r2, #2
 8002892:	d019      	beq.n	80028c8 <USBD_LL_DataInStage+0x44>
 8002894:	f032 0304 	bics.w	r3, r2, #4
 8002898:	d102      	bne.n	80028a0 <USBD_LL_DataInStage+0x1c>
 800289a:	2180      	movs	r1, #128	; 0x80
 800289c:	f001 f9f4 	bl	8003c88 <USBD_LL_StallEP>
 80028a0:	f894 32a0 	ldrb.w	r3, [r4, #672]	; 0x2a0
 80028a4:	2000      	movs	r0, #0
 80028a6:	2b01      	cmp	r3, #1
 80028a8:	d00b      	beq.n	80028c2 <USBD_LL_DataInStage+0x3e>
 80028aa:	bd70      	pop	{r4, r5, r6, pc}
 80028ac:	f8d0 32b4 	ldr.w	r3, [r0, #692]	; 0x2b4
 80028b0:	695b      	ldr	r3, [r3, #20]
 80028b2:	b363      	cbz	r3, 800290e <USBD_LL_DataInStage+0x8a>
 80028b4:	f890 229c 	ldrb.w	r2, [r0, #668]	; 0x29c
 80028b8:	2a03      	cmp	r2, #3
 80028ba:	d128      	bne.n	800290e <USBD_LL_DataInStage+0x8a>
 80028bc:	4798      	blx	r3
 80028be:	2000      	movs	r0, #0
 80028c0:	bd70      	pop	{r4, r5, r6, pc}
 80028c2:	f884 02a0 	strb.w	r0, [r4, #672]	; 0x2a0
 80028c6:	bd70      	pop	{r4, r5, r6, pc}
 80028c8:	e9d0 6208 	ldrd	r6, r2, [r0, #32]
 80028cc:	4296      	cmp	r6, r2
 80028ce:	d820      	bhi.n	8002912 <USBD_LL_DataInStage+0x8e>
 80028d0:	69c3      	ldr	r3, [r0, #28]
 80028d2:	fbb3 f5f2 	udiv	r5, r3, r2
 80028d6:	fb02 3515 	mls	r5, r2, r5, r3
 80028da:	b90d      	cbnz	r5, 80028e0 <USBD_LL_DataInStage+0x5c>
 80028dc:	429a      	cmp	r2, r3
 80028de:	d926      	bls.n	800292e <USBD_LL_DataInStage+0xaa>
 80028e0:	f8d4 32b4 	ldr.w	r3, [r4, #692]	; 0x2b4
 80028e4:	68db      	ldr	r3, [r3, #12]
 80028e6:	b12b      	cbz	r3, 80028f4 <USBD_LL_DataInStage+0x70>
 80028e8:	f894 229c 	ldrb.w	r2, [r4, #668]	; 0x29c
 80028ec:	2a03      	cmp	r2, #3
 80028ee:	d101      	bne.n	80028f4 <USBD_LL_DataInStage+0x70>
 80028f0:	4620      	mov	r0, r4
 80028f2:	4798      	blx	r3
 80028f4:	2180      	movs	r1, #128	; 0x80
 80028f6:	4620      	mov	r0, r4
 80028f8:	f001 f9c6 	bl	8003c88 <USBD_LL_StallEP>
 80028fc:	4620      	mov	r0, r4
 80028fe:	f000 fb2f 	bl	8002f60 <USBD_CtlReceiveStatus>
 8002902:	f894 32a0 	ldrb.w	r3, [r4, #672]	; 0x2a0
 8002906:	2000      	movs	r0, #0
 8002908:	2b01      	cmp	r3, #1
 800290a:	d1ce      	bne.n	80028aa <USBD_LL_DataInStage+0x26>
 800290c:	e7d9      	b.n	80028c2 <USBD_LL_DataInStage+0x3e>
 800290e:	2002      	movs	r0, #2
 8002910:	bd70      	pop	{r4, r5, r6, pc}
 8002912:	1ab2      	subs	r2, r6, r2
 8002914:	460d      	mov	r5, r1
 8002916:	6202      	str	r2, [r0, #32]
 8002918:	4619      	mov	r1, r3
 800291a:	b292      	uxth	r2, r2
 800291c:	f000 faf4 	bl	8002f08 <USBD_CtlContinueSendData>
 8002920:	462b      	mov	r3, r5
 8002922:	462a      	mov	r2, r5
 8002924:	4629      	mov	r1, r5
 8002926:	4620      	mov	r0, r4
 8002928:	f001 f9f6 	bl	8003d18 <USBD_LL_PrepareReceive>
 800292c:	e7b8      	b.n	80028a0 <USBD_LL_DataInStage+0x1c>
 800292e:	f8d0 2298 	ldr.w	r2, [r0, #664]	; 0x298
 8002932:	4293      	cmp	r3, r2
 8002934:	d2d4      	bcs.n	80028e0 <USBD_LL_DataInStage+0x5c>
 8002936:	462a      	mov	r2, r5
 8002938:	f000 fae6 	bl	8002f08 <USBD_CtlContinueSendData>
 800293c:	f8c4 5298 	str.w	r5, [r4, #664]	; 0x298
 8002940:	e7ee      	b.n	8002920 <USBD_LL_DataInStage+0x9c>
 8002942:	bf00      	nop

08002944 <USBD_LL_Reset>:
 8002944:	b570      	push	{r4, r5, r6, lr}
 8002946:	2200      	movs	r2, #0
 8002948:	2640      	movs	r6, #64	; 0x40
 800294a:	4604      	mov	r4, r0
 800294c:	2501      	movs	r5, #1
 800294e:	4611      	mov	r1, r2
 8002950:	4633      	mov	r3, r6
 8002952:	f001 f97b 	bl	8003c4c <USBD_LL_OpenEP>
 8002956:	4633      	mov	r3, r6
 8002958:	2180      	movs	r1, #128	; 0x80
 800295a:	f8c4 5158 	str.w	r5, [r4, #344]	; 0x158
 800295e:	f8c4 6164 	str.w	r6, [r4, #356]	; 0x164
 8002962:	4620      	mov	r0, r4
 8002964:	2200      	movs	r2, #0
 8002966:	f001 f971 	bl	8003c4c <USBD_LL_OpenEP>
 800296a:	2100      	movs	r1, #0
 800296c:	f8d4 32b8 	ldr.w	r3, [r4, #696]	; 0x2b8
 8002970:	61a5      	str	r5, [r4, #24]
 8002972:	6266      	str	r6, [r4, #36]	; 0x24
 8002974:	f884 529c 	strb.w	r5, [r4, #668]	; 0x29c
 8002978:	f8c4 1294 	str.w	r1, [r4, #660]	; 0x294
 800297c:	6061      	str	r1, [r4, #4]
 800297e:	f8c4 12a4 	str.w	r1, [r4, #676]	; 0x2a4
 8002982:	b123      	cbz	r3, 800298e <USBD_LL_Reset+0x4a>
 8002984:	f8d4 32b4 	ldr.w	r3, [r4, #692]	; 0x2b4
 8002988:	4620      	mov	r0, r4
 800298a:	685b      	ldr	r3, [r3, #4]
 800298c:	4798      	blx	r3
 800298e:	2000      	movs	r0, #0
 8002990:	bd70      	pop	{r4, r5, r6, pc}
 8002992:	bf00      	nop

08002994 <USBD_LL_SetSpeed>:
 8002994:	7401      	strb	r1, [r0, #16]
 8002996:	2000      	movs	r0, #0
 8002998:	4770      	bx	lr
 800299a:	bf00      	nop

0800299c <USBD_LL_Suspend>:
 800299c:	4603      	mov	r3, r0
 800299e:	2204      	movs	r2, #4
 80029a0:	f890 129c 	ldrb.w	r1, [r0, #668]	; 0x29c
 80029a4:	2000      	movs	r0, #0
 80029a6:	f883 129d 	strb.w	r1, [r3, #669]	; 0x29d
 80029aa:	f883 229c 	strb.w	r2, [r3, #668]	; 0x29c
 80029ae:	4770      	bx	lr

080029b0 <USBD_LL_Resume>:
 80029b0:	f890 329c 	ldrb.w	r3, [r0, #668]	; 0x29c
 80029b4:	2b04      	cmp	r3, #4
 80029b6:	bf04      	itt	eq
 80029b8:	f890 329d 	ldrbeq.w	r3, [r0, #669]	; 0x29d
 80029bc:	f880 329c 	strbeq.w	r3, [r0, #668]	; 0x29c
 80029c0:	2000      	movs	r0, #0
 80029c2:	4770      	bx	lr

080029c4 <USBD_LL_SOF>:
 80029c4:	f890 229c 	ldrb.w	r2, [r0, #668]	; 0x29c
 80029c8:	2a03      	cmp	r2, #3
 80029ca:	d001      	beq.n	80029d0 <USBD_LL_SOF+0xc>
 80029cc:	2000      	movs	r0, #0
 80029ce:	4770      	bx	lr
 80029d0:	b508      	push	{r3, lr}
 80029d2:	f8d0 32b4 	ldr.w	r3, [r0, #692]	; 0x2b4
 80029d6:	69db      	ldr	r3, [r3, #28]
 80029d8:	b103      	cbz	r3, 80029dc <USBD_LL_SOF+0x18>
 80029da:	4798      	blx	r3
 80029dc:	2000      	movs	r0, #0
 80029de:	bd08      	pop	{r3, pc}

080029e0 <USBD_StdDevReq>:
 80029e0:	b530      	push	{r4, r5, lr}
 80029e2:	780b      	ldrb	r3, [r1, #0]
 80029e4:	b083      	sub	sp, #12
 80029e6:	f003 0360 	and.w	r3, r3, #96	; 0x60
 80029ea:	2b20      	cmp	r3, #32
 80029ec:	460d      	mov	r5, r1
 80029ee:	4604      	mov	r4, r0
 80029f0:	d028      	beq.n	8002a44 <USBD_StdDevReq+0x64>
 80029f2:	2b40      	cmp	r3, #64	; 0x40
 80029f4:	d026      	beq.n	8002a44 <USBD_StdDevReq+0x64>
 80029f6:	b153      	cbz	r3, 8002a0e <USBD_StdDevReq+0x2e>
 80029f8:	2180      	movs	r1, #128	; 0x80
 80029fa:	4620      	mov	r0, r4
 80029fc:	f001 f944 	bl	8003c88 <USBD_LL_StallEP>
 8002a00:	4620      	mov	r0, r4
 8002a02:	2100      	movs	r1, #0
 8002a04:	f001 f940 	bl	8003c88 <USBD_LL_StallEP>
 8002a08:	2000      	movs	r0, #0
 8002a0a:	b003      	add	sp, #12
 8002a0c:	bd30      	pop	{r4, r5, pc}
 8002a0e:	784b      	ldrb	r3, [r1, #1]
 8002a10:	2b09      	cmp	r3, #9
 8002a12:	d8f1      	bhi.n	80029f8 <USBD_StdDevReq+0x18>
 8002a14:	a201      	add	r2, pc, #4	; (adr r2, 8002a1c <USBD_StdDevReq+0x3c>)
 8002a16:	f852 f023 	ldr.w	pc, [r2, r3, lsl #2]
 8002a1a:	bf00      	nop
 8002a1c:	08002a99 	.word	0x08002a99
 8002a20:	08002ac5 	.word	0x08002ac5
 8002a24:	080029f9 	.word	0x080029f9
 8002a28:	08002ae1 	.word	0x08002ae1
 8002a2c:	080029f9 	.word	0x080029f9
 8002a30:	08002aed 	.word	0x08002aed
 8002a34:	08002b2b 	.word	0x08002b2b
 8002a38:	080029f9 	.word	0x080029f9
 8002a3c:	08002b61 	.word	0x08002b61
 8002a40:	08002a57 	.word	0x08002a57
 8002a44:	f8d4 32b4 	ldr.w	r3, [r4, #692]	; 0x2b4
 8002a48:	4629      	mov	r1, r5
 8002a4a:	689b      	ldr	r3, [r3, #8]
 8002a4c:	4620      	mov	r0, r4
 8002a4e:	4798      	blx	r3
 8002a50:	2000      	movs	r0, #0
 8002a52:	b003      	add	sp, #12
 8002a54:	bd30      	pop	{r4, r5, pc}
 8002a56:	7889      	ldrb	r1, [r1, #2]
 8002a58:	4d9f      	ldr	r5, [pc, #636]	; (8002cd8 <USBD_StdDevReq+0x2f8>)
 8002a5a:	2901      	cmp	r1, #1
 8002a5c:	7029      	strb	r1, [r5, #0]
 8002a5e:	d8cb      	bhi.n	80029f8 <USBD_StdDevReq+0x18>
 8002a60:	f890 329c 	ldrb.w	r3, [r0, #668]	; 0x29c
 8002a64:	2b02      	cmp	r3, #2
 8002a66:	f000 810d 	beq.w	8002c84 <USBD_StdDevReq+0x2a4>
 8002a6a:	2b03      	cmp	r3, #3
 8002a6c:	f040 80fe 	bne.w	8002c6c <USBD_StdDevReq+0x28c>
 8002a70:	2900      	cmp	r1, #0
 8002a72:	f000 8127 	beq.w	8002cc4 <USBD_StdDevReq+0x2e4>
 8002a76:	6841      	ldr	r1, [r0, #4]
 8002a78:	2901      	cmp	r1, #1
 8002a7a:	d009      	beq.n	8002a90 <USBD_StdDevReq+0xb0>
 8002a7c:	b2c9      	uxtb	r1, r1
 8002a7e:	f7ff fe89 	bl	8002794 <USBD_ClrClassConfig>
 8002a82:	7829      	ldrb	r1, [r5, #0]
 8002a84:	4620      	mov	r0, r4
 8002a86:	6061      	str	r1, [r4, #4]
 8002a88:	f7ff fe7a 	bl	8002780 <USBD_SetClassConfig>
 8002a8c:	2802      	cmp	r0, #2
 8002a8e:	d0b3      	beq.n	80029f8 <USBD_StdDevReq+0x18>
 8002a90:	4620      	mov	r0, r4
 8002a92:	f000 fa59 	bl	8002f48 <USBD_CtlSendStatus>
 8002a96:	e7b7      	b.n	8002a08 <USBD_StdDevReq+0x28>
 8002a98:	f890 329c 	ldrb.w	r3, [r0, #668]	; 0x29c
 8002a9c:	2203      	movs	r2, #3
 8002a9e:	3b01      	subs	r3, #1
 8002aa0:	2b02      	cmp	r3, #2
 8002aa2:	d8a9      	bhi.n	80029f8 <USBD_StdDevReq+0x18>
 8002aa4:	88cb      	ldrh	r3, [r1, #6]
 8002aa6:	2b02      	cmp	r3, #2
 8002aa8:	d1a6      	bne.n	80029f8 <USBD_StdDevReq+0x18>
 8002aaa:	2101      	movs	r1, #1
 8002aac:	f8d0 32a4 	ldr.w	r3, [r0, #676]	; 0x2a4
 8002ab0:	60c1      	str	r1, [r0, #12]
 8002ab2:	b103      	cbz	r3, 8002ab6 <USBD_StdDevReq+0xd6>
 8002ab4:	60c2      	str	r2, [r0, #12]
 8002ab6:	2202      	movs	r2, #2
 8002ab8:	f104 010c 	add.w	r1, r4, #12
 8002abc:	4620      	mov	r0, r4
 8002abe:	f000 fa15 	bl	8002eec <USBD_CtlSendData>
 8002ac2:	e7a1      	b.n	8002a08 <USBD_StdDevReq+0x28>
 8002ac4:	f890 329c 	ldrb.w	r3, [r0, #668]	; 0x29c
 8002ac8:	3b01      	subs	r3, #1
 8002aca:	2b02      	cmp	r3, #2
 8002acc:	d894      	bhi.n	80029f8 <USBD_StdDevReq+0x18>
 8002ace:	884b      	ldrh	r3, [r1, #2]
 8002ad0:	2b01      	cmp	r3, #1
 8002ad2:	d199      	bne.n	8002a08 <USBD_StdDevReq+0x28>
 8002ad4:	2300      	movs	r3, #0
 8002ad6:	f8c0 32a4 	str.w	r3, [r0, #676]	; 0x2a4
 8002ada:	f000 fa35 	bl	8002f48 <USBD_CtlSendStatus>
 8002ade:	e793      	b.n	8002a08 <USBD_StdDevReq+0x28>
 8002ae0:	884b      	ldrh	r3, [r1, #2]
 8002ae2:	2b01      	cmp	r3, #1
 8002ae4:	d190      	bne.n	8002a08 <USBD_StdDevReq+0x28>
 8002ae6:	f8c0 32a4 	str.w	r3, [r0, #676]	; 0x2a4
 8002aea:	e7d1      	b.n	8002a90 <USBD_StdDevReq+0xb0>
 8002aec:	888b      	ldrh	r3, [r1, #4]
 8002aee:	2b00      	cmp	r3, #0
 8002af0:	d182      	bne.n	80029f8 <USBD_StdDevReq+0x18>
 8002af2:	88cb      	ldrh	r3, [r1, #6]
 8002af4:	2b00      	cmp	r3, #0
 8002af6:	f47f af7f 	bne.w	80029f8 <USBD_StdDevReq+0x18>
 8002afa:	884d      	ldrh	r5, [r1, #2]
 8002afc:	2d7f      	cmp	r5, #127	; 0x7f
 8002afe:	f63f af7b 	bhi.w	80029f8 <USBD_StdDevReq+0x18>
 8002b02:	f890 329c 	ldrb.w	r3, [r0, #668]	; 0x29c
 8002b06:	2b03      	cmp	r3, #3
 8002b08:	f43f af76 	beq.w	80029f8 <USBD_StdDevReq+0x18>
 8002b0c:	b2e9      	uxtb	r1, r5
 8002b0e:	f880 129e 	strb.w	r1, [r0, #670]	; 0x29e
 8002b12:	f001 f8e5 	bl	8003ce0 <USBD_LL_SetUSBAddress>
 8002b16:	4620      	mov	r0, r4
 8002b18:	f000 fa16 	bl	8002f48 <USBD_CtlSendStatus>
 8002b1c:	2d00      	cmp	r5, #0
 8002b1e:	f000 80cd 	beq.w	8002cbc <USBD_StdDevReq+0x2dc>
 8002b22:	2302      	movs	r3, #2
 8002b24:	f884 329c 	strb.w	r3, [r4, #668]	; 0x29c
 8002b28:	e76e      	b.n	8002a08 <USBD_StdDevReq+0x28>
 8002b2a:	2300      	movs	r3, #0
 8002b2c:	884a      	ldrh	r2, [r1, #2]
 8002b2e:	f8ad 3006 	strh.w	r3, [sp, #6]
 8002b32:	0a13      	lsrs	r3, r2, #8
 8002b34:	3b01      	subs	r3, #1
 8002b36:	2b06      	cmp	r3, #6
 8002b38:	f63f af5e 	bhi.w	80029f8 <USBD_StdDevReq+0x18>
 8002b3c:	a101      	add	r1, pc, #4	; (adr r1, 8002b44 <USBD_StdDevReq+0x164>)
 8002b3e:	f851 f023 	ldr.w	pc, [r1, r3, lsl #2]
 8002b42:	bf00      	nop
 8002b44:	08002bf9 	.word	0x08002bf9
 8002b48:	08002be1 	.word	0x08002be1
 8002b4c:	08002c09 	.word	0x08002c09
 8002b50:	080029f9 	.word	0x080029f9
 8002b54:	080029f9 	.word	0x080029f9
 8002b58:	08002bcb 	.word	0x08002bcb
 8002b5c:	08002b87 	.word	0x08002b87
 8002b60:	88ca      	ldrh	r2, [r1, #6]
 8002b62:	2a01      	cmp	r2, #1
 8002b64:	f47f af48 	bne.w	80029f8 <USBD_StdDevReq+0x18>
 8002b68:	f890 329c 	ldrb.w	r3, [r0, #668]	; 0x29c
 8002b6c:	2b00      	cmp	r3, #0
 8002b6e:	f43f af43 	beq.w	80029f8 <USBD_StdDevReq+0x18>
 8002b72:	2b02      	cmp	r3, #2
 8002b74:	f240 8094 	bls.w	8002ca0 <USBD_StdDevReq+0x2c0>
 8002b78:	2b03      	cmp	r3, #3
 8002b7a:	f47f af3d 	bne.w	80029f8 <USBD_StdDevReq+0x18>
 8002b7e:	1d01      	adds	r1, r0, #4
 8002b80:	f000 f9b4 	bl	8002eec <USBD_CtlSendData>
 8002b84:	e740      	b.n	8002a08 <USBD_StdDevReq+0x28>
 8002b86:	7c03      	ldrb	r3, [r0, #16]
 8002b88:	2b00      	cmp	r3, #0
 8002b8a:	f47f af35 	bne.w	80029f8 <USBD_StdDevReq+0x18>
 8002b8e:	f8d0 32b4 	ldr.w	r3, [r0, #692]	; 0x2b4
 8002b92:	f10d 0006 	add.w	r0, sp, #6
 8002b96:	6b1b      	ldr	r3, [r3, #48]	; 0x30
 8002b98:	4798      	blx	r3
 8002b9a:	2307      	movs	r3, #7
 8002b9c:	7043      	strb	r3, [r0, #1]
 8002b9e:	f8bd 3006 	ldrh.w	r3, [sp, #6]
 8002ba2:	88ea      	ldrh	r2, [r5, #6]
 8002ba4:	b16b      	cbz	r3, 8002bc2 <USBD_StdDevReq+0x1e2>
 8002ba6:	2a00      	cmp	r2, #0
 8002ba8:	f43f af72 	beq.w	8002a90 <USBD_StdDevReq+0xb0>
 8002bac:	4293      	cmp	r3, r2
 8002bae:	bf28      	it	cs
 8002bb0:	4613      	movcs	r3, r2
 8002bb2:	4601      	mov	r1, r0
 8002bb4:	461a      	mov	r2, r3
 8002bb6:	4620      	mov	r0, r4
 8002bb8:	f8ad 3006 	strh.w	r3, [sp, #6]
 8002bbc:	f000 f996 	bl	8002eec <USBD_CtlSendData>
 8002bc0:	88ea      	ldrh	r2, [r5, #6]
 8002bc2:	2a00      	cmp	r2, #0
 8002bc4:	f47f af20 	bne.w	8002a08 <USBD_StdDevReq+0x28>
 8002bc8:	e762      	b.n	8002a90 <USBD_StdDevReq+0xb0>
 8002bca:	7c03      	ldrb	r3, [r0, #16]
 8002bcc:	2b00      	cmp	r3, #0
 8002bce:	f47f af13 	bne.w	80029f8 <USBD_StdDevReq+0x18>
 8002bd2:	f8d0 32b4 	ldr.w	r3, [r0, #692]	; 0x2b4
 8002bd6:	f10d 0006 	add.w	r0, sp, #6
 8002bda:	6b5b      	ldr	r3, [r3, #52]	; 0x34
 8002bdc:	4798      	blx	r3
 8002bde:	e7de      	b.n	8002b9e <USBD_StdDevReq+0x1be>
 8002be0:	7c02      	ldrb	r2, [r0, #16]
 8002be2:	f8d0 32b4 	ldr.w	r3, [r0, #692]	; 0x2b4
 8002be6:	2a00      	cmp	r2, #0
 8002be8:	d161      	bne.n	8002cae <USBD_StdDevReq+0x2ce>
 8002bea:	6a9b      	ldr	r3, [r3, #40]	; 0x28
 8002bec:	f10d 0006 	add.w	r0, sp, #6
 8002bf0:	4798      	blx	r3
 8002bf2:	2302      	movs	r3, #2
 8002bf4:	7043      	strb	r3, [r0, #1]
 8002bf6:	e7d2      	b.n	8002b9e <USBD_StdDevReq+0x1be>
 8002bf8:	f8d0 32b0 	ldr.w	r3, [r0, #688]	; 0x2b0
 8002bfc:	f10d 0106 	add.w	r1, sp, #6
 8002c00:	681b      	ldr	r3, [r3, #0]
 8002c02:	7c00      	ldrb	r0, [r0, #16]
 8002c04:	4798      	blx	r3
 8002c06:	e7ca      	b.n	8002b9e <USBD_StdDevReq+0x1be>
 8002c08:	b2d2      	uxtb	r2, r2
 8002c0a:	2a05      	cmp	r2, #5
 8002c0c:	f63f aef4 	bhi.w	80029f8 <USBD_StdDevReq+0x18>
 8002c10:	e8df f002 	tbb	[pc, r2]
 8002c14:	141a2026 	.word	0x141a2026
 8002c18:	030e      	.short	0x030e
 8002c1a:	f8d0 32b0 	ldr.w	r3, [r0, #688]	; 0x2b0
 8002c1e:	699b      	ldr	r3, [r3, #24]
 8002c20:	2b00      	cmp	r3, #0
 8002c22:	f43f aee9 	beq.w	80029f8 <USBD_StdDevReq+0x18>
 8002c26:	f10d 0106 	add.w	r1, sp, #6
 8002c2a:	7c20      	ldrb	r0, [r4, #16]
 8002c2c:	4798      	blx	r3
 8002c2e:	e7b6      	b.n	8002b9e <USBD_StdDevReq+0x1be>
 8002c30:	f8d0 32b0 	ldr.w	r3, [r0, #688]	; 0x2b0
 8002c34:	695b      	ldr	r3, [r3, #20]
 8002c36:	2b00      	cmp	r3, #0
 8002c38:	d1f5      	bne.n	8002c26 <USBD_StdDevReq+0x246>
 8002c3a:	e6dd      	b.n	80029f8 <USBD_StdDevReq+0x18>
 8002c3c:	f8d0 32b0 	ldr.w	r3, [r0, #688]	; 0x2b0
 8002c40:	691b      	ldr	r3, [r3, #16]
 8002c42:	2b00      	cmp	r3, #0
 8002c44:	d1ef      	bne.n	8002c26 <USBD_StdDevReq+0x246>
 8002c46:	e6d7      	b.n	80029f8 <USBD_StdDevReq+0x18>
 8002c48:	f8d0 32b0 	ldr.w	r3, [r0, #688]	; 0x2b0
 8002c4c:	68db      	ldr	r3, [r3, #12]
 8002c4e:	2b00      	cmp	r3, #0
 8002c50:	d1e9      	bne.n	8002c26 <USBD_StdDevReq+0x246>
 8002c52:	e6d1      	b.n	80029f8 <USBD_StdDevReq+0x18>
 8002c54:	f8d0 32b0 	ldr.w	r3, [r0, #688]	; 0x2b0
 8002c58:	689b      	ldr	r3, [r3, #8]
 8002c5a:	2b00      	cmp	r3, #0
 8002c5c:	d1e3      	bne.n	8002c26 <USBD_StdDevReq+0x246>
 8002c5e:	e6cb      	b.n	80029f8 <USBD_StdDevReq+0x18>
 8002c60:	f8d0 32b0 	ldr.w	r3, [r0, #688]	; 0x2b0
 8002c64:	685b      	ldr	r3, [r3, #4]
 8002c66:	2b00      	cmp	r3, #0
 8002c68:	d1dd      	bne.n	8002c26 <USBD_StdDevReq+0x246>
 8002c6a:	e6c5      	b.n	80029f8 <USBD_StdDevReq+0x18>
 8002c6c:	2180      	movs	r1, #128	; 0x80
 8002c6e:	f001 f80b 	bl	8003c88 <USBD_LL_StallEP>
 8002c72:	2100      	movs	r1, #0
 8002c74:	4620      	mov	r0, r4
 8002c76:	f001 f807 	bl	8003c88 <USBD_LL_StallEP>
 8002c7a:	7829      	ldrb	r1, [r5, #0]
 8002c7c:	4620      	mov	r0, r4
 8002c7e:	f7ff fd89 	bl	8002794 <USBD_ClrClassConfig>
 8002c82:	e6c1      	b.n	8002a08 <USBD_StdDevReq+0x28>
 8002c84:	2900      	cmp	r1, #0
 8002c86:	f43f af03 	beq.w	8002a90 <USBD_StdDevReq+0xb0>
 8002c8a:	2101      	movs	r1, #1
 8002c8c:	2303      	movs	r3, #3
 8002c8e:	6041      	str	r1, [r0, #4]
 8002c90:	f880 329c 	strb.w	r3, [r0, #668]	; 0x29c
 8002c94:	f7ff fd74 	bl	8002780 <USBD_SetClassConfig>
 8002c98:	2802      	cmp	r0, #2
 8002c9a:	f47f aef9 	bne.w	8002a90 <USBD_StdDevReq+0xb0>
 8002c9e:	e6ab      	b.n	80029f8 <USBD_StdDevReq+0x18>
 8002ca0:	2300      	movs	r3, #0
 8002ca2:	4601      	mov	r1, r0
 8002ca4:	f841 3f08 	str.w	r3, [r1, #8]!
 8002ca8:	f000 f920 	bl	8002eec <USBD_CtlSendData>
 8002cac:	e6ac      	b.n	8002a08 <USBD_StdDevReq+0x28>
 8002cae:	6adb      	ldr	r3, [r3, #44]	; 0x2c
 8002cb0:	f10d 0006 	add.w	r0, sp, #6
 8002cb4:	4798      	blx	r3
 8002cb6:	2302      	movs	r3, #2
 8002cb8:	7043      	strb	r3, [r0, #1]
 8002cba:	e770      	b.n	8002b9e <USBD_StdDevReq+0x1be>
 8002cbc:	2301      	movs	r3, #1
 8002cbe:	f884 329c 	strb.w	r3, [r4, #668]	; 0x29c
 8002cc2:	e6a1      	b.n	8002a08 <USBD_StdDevReq+0x28>
 8002cc4:	2302      	movs	r3, #2
 8002cc6:	6041      	str	r1, [r0, #4]
 8002cc8:	f880 329c 	strb.w	r3, [r0, #668]	; 0x29c
 8002ccc:	f7ff fd62 	bl	8002794 <USBD_ClrClassConfig>
 8002cd0:	4620      	mov	r0, r4
 8002cd2:	f000 f939 	bl	8002f48 <USBD_CtlSendStatus>
 8002cd6:	e697      	b.n	8002a08 <USBD_StdDevReq+0x28>
 8002cd8:	200001bc 	.word	0x200001bc

08002cdc <USBD_StdItfReq>:
 8002cdc:	b538      	push	{r3, r4, r5, lr}
 8002cde:	780b      	ldrb	r3, [r1, #0]
 8002ce0:	460d      	mov	r5, r1
 8002ce2:	f003 0360 	and.w	r3, r3, #96	; 0x60
 8002ce6:	2b20      	cmp	r3, #32
 8002ce8:	4604      	mov	r4, r0
 8002cea:	d00c      	beq.n	8002d06 <USBD_StdItfReq+0x2a>
 8002cec:	2b40      	cmp	r3, #64	; 0x40
 8002cee:	d00a      	beq.n	8002d06 <USBD_StdItfReq+0x2a>
 8002cf0:	b14b      	cbz	r3, 8002d06 <USBD_StdItfReq+0x2a>
 8002cf2:	2180      	movs	r1, #128	; 0x80
 8002cf4:	4620      	mov	r0, r4
 8002cf6:	f000 ffc7 	bl	8003c88 <USBD_LL_StallEP>
 8002cfa:	4620      	mov	r0, r4
 8002cfc:	2100      	movs	r1, #0
 8002cfe:	f000 ffc3 	bl	8003c88 <USBD_LL_StallEP>
 8002d02:	2000      	movs	r0, #0
 8002d04:	bd38      	pop	{r3, r4, r5, pc}
 8002d06:	f894 329c 	ldrb.w	r3, [r4, #668]	; 0x29c
 8002d0a:	3b01      	subs	r3, #1
 8002d0c:	2b02      	cmp	r3, #2
 8002d0e:	d8f0      	bhi.n	8002cf2 <USBD_StdItfReq+0x16>
 8002d10:	792b      	ldrb	r3, [r5, #4]
 8002d12:	2b01      	cmp	r3, #1
 8002d14:	d8ed      	bhi.n	8002cf2 <USBD_StdItfReq+0x16>
 8002d16:	f8d4 32b4 	ldr.w	r3, [r4, #692]	; 0x2b4
 8002d1a:	4629      	mov	r1, r5
 8002d1c:	689b      	ldr	r3, [r3, #8]
 8002d1e:	4620      	mov	r0, r4
 8002d20:	4798      	blx	r3
 8002d22:	88eb      	ldrh	r3, [r5, #6]
 8002d24:	2b00      	cmp	r3, #0
 8002d26:	d1ec      	bne.n	8002d02 <USBD_StdItfReq+0x26>
 8002d28:	2800      	cmp	r0, #0
 8002d2a:	d1ea      	bne.n	8002d02 <USBD_StdItfReq+0x26>
 8002d2c:	4620      	mov	r0, r4
 8002d2e:	f000 f90b 	bl	8002f48 <USBD_CtlSendStatus>
 8002d32:	e7e6      	b.n	8002d02 <USBD_StdItfReq+0x26>

08002d34 <USBD_StdEPReq>:
 8002d34:	b570      	push	{r4, r5, r6, lr}
 8002d36:	780b      	ldrb	r3, [r1, #0]
 8002d38:	4604      	mov	r4, r0
 8002d3a:	f003 0360 	and.w	r3, r3, #96	; 0x60
 8002d3e:	2b20      	cmp	r3, #32
 8002d40:	d00c      	beq.n	8002d5c <USBD_StdEPReq+0x28>
 8002d42:	2b40      	cmp	r3, #64	; 0x40
 8002d44:	d00a      	beq.n	8002d5c <USBD_StdEPReq+0x28>
 8002d46:	b183      	cbz	r3, 8002d6a <USBD_StdEPReq+0x36>
 8002d48:	2180      	movs	r1, #128	; 0x80
 8002d4a:	4620      	mov	r0, r4
 8002d4c:	f000 ff9c 	bl	8003c88 <USBD_LL_StallEP>
 8002d50:	4620      	mov	r0, r4
 8002d52:	2100      	movs	r1, #0
 8002d54:	f000 ff98 	bl	8003c88 <USBD_LL_StallEP>
 8002d58:	2000      	movs	r0, #0
 8002d5a:	bd70      	pop	{r4, r5, r6, pc}
 8002d5c:	f8d4 32b4 	ldr.w	r3, [r4, #692]	; 0x2b4
 8002d60:	4620      	mov	r0, r4
 8002d62:	689b      	ldr	r3, [r3, #8]
 8002d64:	4798      	blx	r3
 8002d66:	2000      	movs	r0, #0
 8002d68:	bd70      	pop	{r4, r5, r6, pc}
 8002d6a:	784b      	ldrb	r3, [r1, #1]
 8002d6c:	888a      	ldrh	r2, [r1, #4]
 8002d6e:	2b01      	cmp	r3, #1
 8002d70:	b2d5      	uxtb	r5, r2
 8002d72:	d03e      	beq.n	8002df2 <USBD_StdEPReq+0xbe>
 8002d74:	d314      	bcc.n	8002da0 <USBD_StdEPReq+0x6c>
 8002d76:	2b03      	cmp	r3, #3
 8002d78:	d1e6      	bne.n	8002d48 <USBD_StdEPReq+0x14>
 8002d7a:	f890 329c 	ldrb.w	r3, [r0, #668]	; 0x29c
 8002d7e:	2b02      	cmp	r3, #2
 8002d80:	d046      	beq.n	8002e10 <USBD_StdEPReq+0xdc>
 8002d82:	2b03      	cmp	r3, #3
 8002d84:	d1e0      	bne.n	8002d48 <USBD_StdEPReq+0x14>
 8002d86:	884b      	ldrh	r3, [r1, #2]
 8002d88:	b933      	cbnz	r3, 8002d98 <USBD_StdEPReq+0x64>
 8002d8a:	066a      	lsls	r2, r5, #25
 8002d8c:	d004      	beq.n	8002d98 <USBD_StdEPReq+0x64>
 8002d8e:	88cb      	ldrh	r3, [r1, #6]
 8002d90:	b913      	cbnz	r3, 8002d98 <USBD_StdEPReq+0x64>
 8002d92:	4629      	mov	r1, r5
 8002d94:	f000 ff78 	bl	8003c88 <USBD_LL_StallEP>
 8002d98:	4620      	mov	r0, r4
 8002d9a:	f000 f8d5 	bl	8002f48 <USBD_CtlSendStatus>
 8002d9e:	e7db      	b.n	8002d58 <USBD_StdEPReq+0x24>
 8002da0:	f890 329c 	ldrb.w	r3, [r0, #668]	; 0x29c
 8002da4:	2b02      	cmp	r3, #2
 8002da6:	d03d      	beq.n	8002e24 <USBD_StdEPReq+0xf0>
 8002da8:	2b03      	cmp	r3, #3
 8002daa:	d1cd      	bne.n	8002d48 <USBD_StdEPReq+0x14>
 8002dac:	f005 030f 	and.w	r3, r5, #15
 8002db0:	eb03 0383 	add.w	r3, r3, r3, lsl #2
 8002db4:	0612      	lsls	r2, r2, #24
 8002db6:	eb00 0383 	add.w	r3, r0, r3, lsl #2
 8002dba:	d442      	bmi.n	8002e42 <USBD_StdEPReq+0x10e>
 8002dbc:	f8d3 3158 	ldr.w	r3, [r3, #344]	; 0x158
 8002dc0:	2b00      	cmp	r3, #0
 8002dc2:	d0c1      	beq.n	8002d48 <USBD_StdEPReq+0x14>
 8002dc4:	f005 037f 	and.w	r3, r5, #127	; 0x7f
 8002dc8:	eb03 0683 	add.w	r6, r3, r3, lsl #2
 8002dcc:	eb00 0686 	add.w	r6, r0, r6, lsl #2
 8002dd0:	f506 76aa 	add.w	r6, r6, #340	; 0x154
 8002dd4:	b133      	cbz	r3, 8002de4 <USBD_StdEPReq+0xb0>
 8002dd6:	4629      	mov	r1, r5
 8002dd8:	4620      	mov	r0, r4
 8002dda:	f000 ff71 	bl	8003cc0 <USBD_LL_IsStallEP>
 8002dde:	2800      	cmp	r0, #0
 8002de0:	d03b      	beq.n	8002e5a <USBD_StdEPReq+0x126>
 8002de2:	2301      	movs	r3, #1
 8002de4:	6033      	str	r3, [r6, #0]
 8002de6:	4631      	mov	r1, r6
 8002de8:	4620      	mov	r0, r4
 8002dea:	2202      	movs	r2, #2
 8002dec:	f000 f87e 	bl	8002eec <USBD_CtlSendData>
 8002df0:	e7b2      	b.n	8002d58 <USBD_StdEPReq+0x24>
 8002df2:	f890 329c 	ldrb.w	r3, [r0, #668]	; 0x29c
 8002df6:	2b02      	cmp	r3, #2
 8002df8:	d00a      	beq.n	8002e10 <USBD_StdEPReq+0xdc>
 8002dfa:	2b03      	cmp	r3, #3
 8002dfc:	d1a4      	bne.n	8002d48 <USBD_StdEPReq+0x14>
 8002dfe:	884b      	ldrh	r3, [r1, #2]
 8002e00:	2b00      	cmp	r3, #0
 8002e02:	d1a9      	bne.n	8002d58 <USBD_StdEPReq+0x24>
 8002e04:	066e      	lsls	r6, r5, #25
 8002e06:	d0c7      	beq.n	8002d98 <USBD_StdEPReq+0x64>
 8002e08:	4629      	mov	r1, r5
 8002e0a:	f000 ff4b 	bl	8003ca4 <USBD_LL_ClearStallEP>
 8002e0e:	e7c3      	b.n	8002d98 <USBD_StdEPReq+0x64>
 8002e10:	066b      	lsls	r3, r5, #25
 8002e12:	d099      	beq.n	8002d48 <USBD_StdEPReq+0x14>
 8002e14:	4629      	mov	r1, r5
 8002e16:	f000 ff37 	bl	8003c88 <USBD_LL_StallEP>
 8002e1a:	4620      	mov	r0, r4
 8002e1c:	2180      	movs	r1, #128	; 0x80
 8002e1e:	f000 ff33 	bl	8003c88 <USBD_LL_StallEP>
 8002e22:	e799      	b.n	8002d58 <USBD_StdEPReq+0x24>
 8002e24:	0668      	lsls	r0, r5, #25
 8002e26:	d18f      	bne.n	8002d48 <USBD_StdEPReq+0x14>
 8002e28:	2300      	movs	r3, #0
 8002e2a:	0611      	lsls	r1, r2, #24
 8002e2c:	bf4c      	ite	mi
 8002e2e:	f104 0114 	addmi.w	r1, r4, #20
 8002e32:	f504 71aa 	addpl.w	r1, r4, #340	; 0x154
 8002e36:	4620      	mov	r0, r4
 8002e38:	600b      	str	r3, [r1, #0]
 8002e3a:	2202      	movs	r2, #2
 8002e3c:	f000 f856 	bl	8002eec <USBD_CtlSendData>
 8002e40:	e78a      	b.n	8002d58 <USBD_StdEPReq+0x24>
 8002e42:	699b      	ldr	r3, [r3, #24]
 8002e44:	2b00      	cmp	r3, #0
 8002e46:	f43f af7f 	beq.w	8002d48 <USBD_StdEPReq+0x14>
 8002e4a:	f005 037f 	and.w	r3, r5, #127	; 0x7f
 8002e4e:	1c5e      	adds	r6, r3, #1
 8002e50:	eb06 0686 	add.w	r6, r6, r6, lsl #2
 8002e54:	eb00 0686 	add.w	r6, r0, r6, lsl #2
 8002e58:	e7bc      	b.n	8002dd4 <USBD_StdEPReq+0xa0>
 8002e5a:	6030      	str	r0, [r6, #0]
 8002e5c:	e7c3      	b.n	8002de6 <USBD_StdEPReq+0xb2>
 8002e5e:	bf00      	nop

08002e60 <USBD_ParseSetupRequest>:
 8002e60:	780b      	ldrb	r3, [r1, #0]
 8002e62:	7003      	strb	r3, [r0, #0]
 8002e64:	784b      	ldrb	r3, [r1, #1]
 8002e66:	7043      	strb	r3, [r0, #1]
 8002e68:	78ca      	ldrb	r2, [r1, #3]
 8002e6a:	788b      	ldrb	r3, [r1, #2]
 8002e6c:	eb03 2302 	add.w	r3, r3, r2, lsl #8
 8002e70:	8043      	strh	r3, [r0, #2]
 8002e72:	794a      	ldrb	r2, [r1, #5]
 8002e74:	790b      	ldrb	r3, [r1, #4]
 8002e76:	eb03 2302 	add.w	r3, r3, r2, lsl #8
 8002e7a:	8083      	strh	r3, [r0, #4]
 8002e7c:	79ca      	ldrb	r2, [r1, #7]
 8002e7e:	798b      	ldrb	r3, [r1, #6]
 8002e80:	eb03 2302 	add.w	r3, r3, r2, lsl #8
 8002e84:	80c3      	strh	r3, [r0, #6]
 8002e86:	4770      	bx	lr

08002e88 <USBD_CtlError>:
 8002e88:	b510      	push	{r4, lr}
 8002e8a:	4604      	mov	r4, r0
 8002e8c:	2180      	movs	r1, #128	; 0x80
 8002e8e:	f000 fefb 	bl	8003c88 <USBD_LL_StallEP>
 8002e92:	4620      	mov	r0, r4
 8002e94:	e8bd 4010 	ldmia.w	sp!, {r4, lr}
 8002e98:	2100      	movs	r1, #0
 8002e9a:	f000 bef5 	b.w	8003c88 <USBD_LL_StallEP>
 8002e9e:	bf00      	nop

08002ea0 <USBD_GetString>:
 8002ea0:	b300      	cbz	r0, 8002ee4 <USBD_GetString+0x44>
 8002ea2:	7803      	ldrb	r3, [r0, #0]
 8002ea4:	b430      	push	{r4, r5}
 8002ea6:	b1f3      	cbz	r3, 8002ee6 <USBD_GetString+0x46>
 8002ea8:	4604      	mov	r4, r0
 8002eaa:	2300      	movs	r3, #0
 8002eac:	f814 5f01 	ldrb.w	r5, [r4, #1]!
 8002eb0:	3301      	adds	r3, #1
 8002eb2:	b2db      	uxtb	r3, r3
 8002eb4:	2d00      	cmp	r5, #0
 8002eb6:	d1f9      	bne.n	8002eac <USBD_GetString+0xc>
 8002eb8:	005b      	lsls	r3, r3, #1
 8002eba:	3302      	adds	r3, #2
 8002ebc:	2403      	movs	r4, #3
 8002ebe:	8013      	strh	r3, [r2, #0]
 8002ec0:	700b      	strb	r3, [r1, #0]
 8002ec2:	704c      	strb	r4, [r1, #1]
 8002ec4:	7804      	ldrb	r4, [r0, #0]
 8002ec6:	b15c      	cbz	r4, 8002ee0 <USBD_GetString+0x40>
 8002ec8:	2302      	movs	r3, #2
 8002eca:	2500      	movs	r5, #0
 8002ecc:	1c5a      	adds	r2, r3, #1
 8002ece:	b2d2      	uxtb	r2, r2
 8002ed0:	54cc      	strb	r4, [r1, r3]
 8002ed2:	548d      	strb	r5, [r1, r2]
 8002ed4:	f810 4f01 	ldrb.w	r4, [r0, #1]!
 8002ed8:	3302      	adds	r3, #2
 8002eda:	b2db      	uxtb	r3, r3
 8002edc:	2c00      	cmp	r4, #0
 8002ede:	d1f5      	bne.n	8002ecc <USBD_GetString+0x2c>
 8002ee0:	bc30      	pop	{r4, r5}
 8002ee2:	4770      	bx	lr
 8002ee4:	4770      	bx	lr
 8002ee6:	2302      	movs	r3, #2
 8002ee8:	e7e8      	b.n	8002ebc <USBD_GetString+0x1c>
 8002eea:	bf00      	nop

08002eec <USBD_CtlSendData>:
 8002eec:	b538      	push	{r3, r4, r5, lr}
 8002eee:	4613      	mov	r3, r2
 8002ef0:	2502      	movs	r5, #2
 8002ef2:	460a      	mov	r2, r1
 8002ef4:	e9c0 3307 	strd	r3, r3, [r0, #28]
 8002ef8:	f8c0 5294 	str.w	r5, [r0, #660]	; 0x294
 8002efc:	2100      	movs	r1, #0
 8002efe:	f000 fefd 	bl	8003cfc <USBD_LL_Transmit>
 8002f02:	2000      	movs	r0, #0
 8002f04:	bd38      	pop	{r3, r4, r5, pc}
 8002f06:	bf00      	nop

08002f08 <USBD_CtlContinueSendData>:
 8002f08:	b508      	push	{r3, lr}
 8002f0a:	4613      	mov	r3, r2
 8002f0c:	460a      	mov	r2, r1
 8002f0e:	2100      	movs	r1, #0
 8002f10:	f000 fef4 	bl	8003cfc <USBD_LL_Transmit>
 8002f14:	2000      	movs	r0, #0
 8002f16:	bd08      	pop	{r3, pc}

08002f18 <USBD_CtlPrepareRx>:
 8002f18:	b538      	push	{r3, r4, r5, lr}
 8002f1a:	4613      	mov	r3, r2
 8002f1c:	2503      	movs	r5, #3
 8002f1e:	460a      	mov	r2, r1
 8002f20:	f8c0 315c 	str.w	r3, [r0, #348]	; 0x15c
 8002f24:	f8c0 3160 	str.w	r3, [r0, #352]	; 0x160
 8002f28:	f8c0 5294 	str.w	r5, [r0, #660]	; 0x294
 8002f2c:	2100      	movs	r1, #0
 8002f2e:	f000 fef3 	bl	8003d18 <USBD_LL_PrepareReceive>
 8002f32:	2000      	movs	r0, #0
 8002f34:	bd38      	pop	{r3, r4, r5, pc}
 8002f36:	bf00      	nop

08002f38 <USBD_CtlContinueRx>:
 8002f38:	b508      	push	{r3, lr}
 8002f3a:	4613      	mov	r3, r2
 8002f3c:	460a      	mov	r2, r1
 8002f3e:	2100      	movs	r1, #0
 8002f40:	f000 feea 	bl	8003d18 <USBD_LL_PrepareReceive>
 8002f44:	2000      	movs	r0, #0
 8002f46:	bd08      	pop	{r3, pc}

08002f48 <USBD_CtlSendStatus>:
 8002f48:	b508      	push	{r3, lr}
 8002f4a:	2204      	movs	r2, #4
 8002f4c:	2300      	movs	r3, #0
 8002f4e:	f8c0 2294 	str.w	r2, [r0, #660]	; 0x294
 8002f52:	4619      	mov	r1, r3
 8002f54:	461a      	mov	r2, r3
 8002f56:	f000 fed1 	bl	8003cfc <USBD_LL_Transmit>
 8002f5a:	2000      	movs	r0, #0
 8002f5c:	bd08      	pop	{r3, pc}
 8002f5e:	bf00      	nop

08002f60 <USBD_CtlReceiveStatus>:
 8002f60:	b508      	push	{r3, lr}
 8002f62:	2205      	movs	r2, #5
 8002f64:	2300      	movs	r3, #0
 8002f66:	f8c0 2294 	str.w	r2, [r0, #660]	; 0x294
 8002f6a:	4619      	mov	r1, r3
 8002f6c:	461a      	mov	r2, r3
 8002f6e:	f000 fed3 	bl	8003d18 <USBD_LL_PrepareReceive>
 8002f72:	2000      	movs	r0, #0
 8002f74:	bd08      	pop	{r3, pc}
 8002f76:	bf00      	nop

08002f78 <DWT_Delay_Init>:
 8002f78:	2000      	movs	r0, #0
 8002f7a:	4a0d      	ldr	r2, [pc, #52]	; (8002fb0 <DWT_Delay_Init+0x38>)
 8002f7c:	4b0d      	ldr	r3, [pc, #52]	; (8002fb4 <DWT_Delay_Init+0x3c>)
 8002f7e:	68d1      	ldr	r1, [r2, #12]
 8002f80:	f021 7180 	bic.w	r1, r1, #16777216	; 0x1000000
 8002f84:	60d1      	str	r1, [r2, #12]
 8002f86:	68d1      	ldr	r1, [r2, #12]
 8002f88:	f041 7180 	orr.w	r1, r1, #16777216	; 0x1000000
 8002f8c:	60d1      	str	r1, [r2, #12]
 8002f8e:	681a      	ldr	r2, [r3, #0]
 8002f90:	f022 0201 	bic.w	r2, r2, #1
 8002f94:	601a      	str	r2, [r3, #0]
 8002f96:	681a      	ldr	r2, [r3, #0]
 8002f98:	f042 0201 	orr.w	r2, r2, #1
 8002f9c:	601a      	str	r2, [r3, #0]
 8002f9e:	6058      	str	r0, [r3, #4]
 8002fa0:	bf00      	nop
 8002fa2:	bf00      	nop
 8002fa4:	bf00      	nop
 8002fa6:	6858      	ldr	r0, [r3, #4]
 8002fa8:	fab0 f080 	clz	r0, r0
 8002fac:	0940      	lsrs	r0, r0, #5
 8002fae:	4770      	bx	lr
 8002fb0:	e000edf0 	.word	0xe000edf0
 8002fb4:	e0001000 	.word	0xe0001000

08002fb8 <SystemClock_Config>:
 8002fb8:	b530      	push	{r4, r5, lr}
 8002fba:	2201      	movs	r2, #1
 8002fbc:	2400      	movs	r4, #0
 8002fbe:	f44f 3380 	mov.w	r3, #65536	; 0x10000
 8002fc2:	2502      	movs	r5, #2
 8002fc4:	f44f 1180 	mov.w	r1, #1048576	; 0x100000
 8002fc8:	b095      	sub	sp, #84	; 0x54
 8002fca:	a80a      	add	r0, sp, #40	; 0x28
 8002fcc:	920a      	str	r2, [sp, #40]	; 0x28
 8002fce:	920e      	str	r2, [sp, #56]	; 0x38
 8002fd0:	930b      	str	r3, [sp, #44]	; 0x2c
 8002fd2:	9312      	str	r3, [sp, #72]	; 0x48
 8002fd4:	9113      	str	r1, [sp, #76]	; 0x4c
 8002fd6:	940c      	str	r4, [sp, #48]	; 0x30
 8002fd8:	9405      	str	r4, [sp, #20]
 8002fda:	9401      	str	r4, [sp, #4]
 8002fdc:	940d      	str	r4, [sp, #52]	; 0x34
 8002fde:	e9cd 440f 	strd	r4, r4, [sp, #60]	; 0x3c
 8002fe2:	e9cd 4406 	strd	r4, r4, [sp, #24]
 8002fe6:	e9cd 4408 	strd	r4, r4, [sp, #32]
 8002fea:	e9cd 4402 	strd	r4, r4, [sp, #8]
 8002fee:	9404      	str	r4, [sp, #16]
 8002ff0:	9511      	str	r5, [sp, #68]	; 0x44
 8002ff2:	f7fe fa95 	bl	8001520 <HAL_RCC_OscConfig>
 8002ff6:	220f      	movs	r2, #15
 8002ff8:	f44f 6380 	mov.w	r3, #1024	; 0x400
 8002ffc:	4629      	mov	r1, r5
 8002ffe:	a805      	add	r0, sp, #20
 8003000:	9205      	str	r2, [sp, #20]
 8003002:	9308      	str	r3, [sp, #32]
 8003004:	9506      	str	r5, [sp, #24]
 8003006:	9407      	str	r4, [sp, #28]
 8003008:	9409      	str	r4, [sp, #36]	; 0x24
 800300a:	f7fe fc81 	bl	8001910 <HAL_RCC_ClockConfig>
 800300e:	2310      	movs	r3, #16
 8003010:	a801      	add	r0, sp, #4
 8003012:	9404      	str	r4, [sp, #16]
 8003014:	9301      	str	r3, [sp, #4]
 8003016:	f7fe fd57 	bl	8001ac8 <HAL_RCCEx_PeriphCLKConfig>
 800301a:	b015      	add	sp, #84	; 0x54
 800301c:	bd30      	pop	{r4, r5, pc}
 800301e:	bf00      	nop

08003020 <DDS_Set>:
 8003020:	f44f 7280 	mov.w	r2, #256	; 0x100
 8003024:	2120      	movs	r1, #32
 8003026:	4b5c      	ldr	r3, [pc, #368]	; (8003198 <DDS_Set+0x178>)
 8003028:	611a      	str	r2, [r3, #16]
 800302a:	6119      	str	r1, [r3, #16]
 800302c:	615a      	str	r2, [r3, #20]
 800302e:	2240      	movs	r2, #64	; 0x40
 8003030:	0401      	lsls	r1, r0, #16
 8003032:	bf54      	ite	pl
 8003034:	615a      	strpl	r2, [r3, #20]
 8003036:	611a      	strmi	r2, [r3, #16]
 8003038:	bf00      	nop
 800303a:	2220      	movs	r2, #32
 800303c:	4b56      	ldr	r3, [pc, #344]	; (8003198 <DDS_Set+0x178>)
 800303e:	0441      	lsls	r1, r0, #17
 8003040:	615a      	str	r2, [r3, #20]
 8003042:	611a      	str	r2, [r3, #16]
 8003044:	f04f 0240 	mov.w	r2, #64	; 0x40
 8003048:	bf54      	ite	pl
 800304a:	615a      	strpl	r2, [r3, #20]
 800304c:	611a      	strmi	r2, [r3, #16]
 800304e:	bf00      	nop
 8003050:	2220      	movs	r2, #32
 8003052:	4b51      	ldr	r3, [pc, #324]	; (8003198 <DDS_Set+0x178>)
 8003054:	0481      	lsls	r1, r0, #18
 8003056:	615a      	str	r2, [r3, #20]
 8003058:	611a      	str	r2, [r3, #16]
 800305a:	f04f 0240 	mov.w	r2, #64	; 0x40
 800305e:	bf54      	ite	pl
 8003060:	615a      	strpl	r2, [r3, #20]
 8003062:	611a      	strmi	r2, [r3, #16]
 8003064:	bf00      	nop
 8003066:	2220      	movs	r2, #32
 8003068:	4b4b      	ldr	r3, [pc, #300]	; (8003198 <DDS_Set+0x178>)
 800306a:	04c1      	lsls	r1, r0, #19
 800306c:	615a      	str	r2, [r3, #20]
 800306e:	611a      	str	r2, [r3, #16]
 8003070:	f04f 0240 	mov.w	r2, #64	; 0x40
 8003074:	bf54      	ite	pl
 8003076:	615a      	strpl	r2, [r3, #20]
 8003078:	611a      	strmi	r2, [r3, #16]
 800307a:	bf00      	nop
 800307c:	2220      	movs	r2, #32
 800307e:	4b46      	ldr	r3, [pc, #280]	; (8003198 <DDS_Set+0x178>)
 8003080:	0501      	lsls	r1, r0, #20
 8003082:	615a      	str	r2, [r3, #20]
 8003084:	611a      	str	r2, [r3, #16]
 8003086:	f04f 0240 	mov.w	r2, #64	; 0x40
 800308a:	bf54      	ite	pl
 800308c:	615a      	strpl	r2, [r3, #20]
 800308e:	611a      	strmi	r2, [r3, #16]
 8003090:	bf00      	nop
 8003092:	2220      	movs	r2, #32
 8003094:	4b40      	ldr	r3, [pc, #256]	; (8003198 <DDS_Set+0x178>)
 8003096:	0541      	lsls	r1, r0, #21
 8003098:	615a      	str	r2, [r3, #20]
 800309a:	611a      	str	r2, [r3, #16]
 800309c:	f04f 0240 	mov.w	r2, #64	; 0x40
 80030a0:	bf54      	ite	pl
 80030a2:	615a      	strpl	r2, [r3, #20]
 80030a4:	611a      	strmi	r2, [r3, #16]
 80030a6:	bf00      	nop
 80030a8:	2220      	movs	r2, #32
 80030aa:	4b3b      	ldr	r3, [pc, #236]	; (8003198 <DDS_Set+0x178>)
 80030ac:	0581      	lsls	r1, r0, #22
 80030ae:	615a      	str	r2, [r3, #20]
 80030b0:	611a      	str	r2, [r3, #16]
 80030b2:	f04f 0240 	mov.w	r2, #64	; 0x40
 80030b6:	bf54      	ite	pl
 80030b8:	615a      	strpl	r2, [r3, #20]
 80030ba:	611a      	strmi	r2, [r3, #16]
 80030bc:	bf00      	nop
 80030be:	2220      	movs	r2, #32
 80030c0:	4b35      	ldr	r3, [pc, #212]	; (8003198 <DDS_Set+0x178>)
 80030c2:	05c1      	lsls	r1, r0, #23
 80030c4:	615a      	str	r2, [r3, #20]
 80030c6:	611a      	str	r2, [r3, #16]
 80030c8:	f04f 0240 	mov.w	r2, #64	; 0x40
 80030cc:	bf54      	ite	pl
 80030ce:	615a      	strpl	r2, [r3, #20]
 80030d0:	611a      	strmi	r2, [r3, #16]
 80030d2:	bf00      	nop
 80030d4:	2220      	movs	r2, #32
 80030d6:	4b30      	ldr	r3, [pc, #192]	; (8003198 <DDS_Set+0x178>)
 80030d8:	0601      	lsls	r1, r0, #24
 80030da:	615a      	str	r2, [r3, #20]
 80030dc:	611a      	str	r2, [r3, #16]
 80030de:	f04f 0240 	mov.w	r2, #64	; 0x40
 80030e2:	bf54      	ite	pl
 80030e4:	615a      	strpl	r2, [r3, #20]
 80030e6:	611a      	strmi	r2, [r3, #16]
 80030e8:	bf00      	nop
 80030ea:	2220      	movs	r2, #32
 80030ec:	4b2a      	ldr	r3, [pc, #168]	; (8003198 <DDS_Set+0x178>)
 80030ee:	0641      	lsls	r1, r0, #25
 80030f0:	615a      	str	r2, [r3, #20]
 80030f2:	611a      	str	r2, [r3, #16]
 80030f4:	f04f 0240 	mov.w	r2, #64	; 0x40
 80030f8:	bf54      	ite	pl
 80030fa:	615a      	strpl	r2, [r3, #20]
 80030fc:	611a      	strmi	r2, [r3, #16]
 80030fe:	bf00      	nop
 8003100:	2220      	movs	r2, #32
 8003102:	4b25      	ldr	r3, [pc, #148]	; (8003198 <DDS_Set+0x178>)
 8003104:	0681      	lsls	r1, r0, #26
 8003106:	615a      	str	r2, [r3, #20]
 8003108:	611a      	str	r2, [r3, #16]
 800310a:	f04f 0240 	mov.w	r2, #64	; 0x40
 800310e:	bf54      	ite	pl
 8003110:	615a      	strpl	r2, [r3, #20]
 8003112:	611a      	strmi	r2, [r3, #16]
 8003114:	bf00      	nop
 8003116:	2220      	movs	r2, #32
 8003118:	4b1f      	ldr	r3, [pc, #124]	; (8003198 <DDS_Set+0x178>)
 800311a:	06c1      	lsls	r1, r0, #27
 800311c:	615a      	str	r2, [r3, #20]
 800311e:	611a      	str	r2, [r3, #16]
 8003120:	f04f 0240 	mov.w	r2, #64	; 0x40
 8003124:	bf54      	ite	pl
 8003126:	615a      	strpl	r2, [r3, #20]
 8003128:	611a      	strmi	r2, [r3, #16]
 800312a:	bf00      	nop
 800312c:	2220      	movs	r2, #32
 800312e:	4b1a      	ldr	r3, [pc, #104]	; (8003198 <DDS_Set+0x178>)
 8003130:	0701      	lsls	r1, r0, #28
 8003132:	615a      	str	r2, [r3, #20]
 8003134:	611a      	str	r2, [r3, #16]
 8003136:	f04f 0240 	mov.w	r2, #64	; 0x40
 800313a:	bf54      	ite	pl
 800313c:	615a      	strpl	r2, [r3, #20]
 800313e:	611a      	strmi	r2, [r3, #16]
 8003140:	bf00      	nop
 8003142:	2220      	movs	r2, #32
 8003144:	4b14      	ldr	r3, [pc, #80]	; (8003198 <DDS_Set+0x178>)
 8003146:	0741      	lsls	r1, r0, #29
 8003148:	615a      	str	r2, [r3, #20]
 800314a:	611a      	str	r2, [r3, #16]
 800314c:	f04f 0240 	mov.w	r2, #64	; 0x40
 8003150:	bf54      	ite	pl
 8003152:	615a      	strpl	r2, [r3, #20]
 8003154:	611a      	strmi	r2, [r3, #16]
 8003156:	bf00      	nop
 8003158:	2220      	movs	r2, #32
 800315a:	4b0f      	ldr	r3, [pc, #60]	; (8003198 <DDS_Set+0x178>)
 800315c:	0781      	lsls	r1, r0, #30
 800315e:	615a      	str	r2, [r3, #20]
 8003160:	611a      	str	r2, [r3, #16]
 8003162:	f04f 0240 	mov.w	r2, #64	; 0x40
 8003166:	bf54      	ite	pl
 8003168:	615a      	strpl	r2, [r3, #20]
 800316a:	611a      	strmi	r2, [r3, #16]
 800316c:	bf00      	nop
 800316e:	2220      	movs	r2, #32
 8003170:	4b09      	ldr	r3, [pc, #36]	; (8003198 <DDS_Set+0x178>)
 8003172:	07c1      	lsls	r1, r0, #31
 8003174:	615a      	str	r2, [r3, #20]
 8003176:	611a      	str	r2, [r3, #16]
 8003178:	f04f 0240 	mov.w	r2, #64	; 0x40
 800317c:	bf4c      	ite	mi
 800317e:	611a      	strmi	r2, [r3, #16]
 8003180:	615a      	strpl	r2, [r3, #20]
 8003182:	bf00      	nop
 8003184:	2220      	movs	r2, #32
 8003186:	4b04      	ldr	r3, [pc, #16]	; (8003198 <DDS_Set+0x178>)
 8003188:	615a      	str	r2, [r3, #20]
 800318a:	611a      	str	r2, [r3, #16]
 800318c:	bf00      	nop
 800318e:	f44f 7280 	mov.w	r2, #256	; 0x100
 8003192:	611a      	str	r2, [r3, #16]
 8003194:	4770      	bx	lr
 8003196:	bf00      	nop
 8003198:	40010c00 	.word	0x40010c00
 800319c:	00000000 	.word	0x00000000

080031a0 <main>:
 80031a0:	e92d 4ff0 	stmdb	sp!, {r4, r5, r6, r7, r8, r9, sl, fp, lr}
 80031a4:	f04f 0800 	mov.w	r8, #0
 80031a8:	b08b      	sub	sp, #44	; 0x2c
 80031aa:	f7fd fbe3 	bl	8000974 <HAL_Init>
 80031ae:	f7ff ff03 	bl	8002fb8 <SystemClock_Config>
 80031b2:	e9cd 8806 	strd	r8, r8, [sp, #24]
 80031b6:	e9cd 8808 	strd	r8, r8, [sp, #32]
 80031ba:	4ba3      	ldr	r3, [pc, #652]	; (8003448 <main+0x2a8>)
 80031bc:	4642      	mov	r2, r8
 80031be:	6999      	ldr	r1, [r3, #24]
 80031c0:	2601      	movs	r6, #1
 80031c2:	f041 0110 	orr.w	r1, r1, #16
 80031c6:	6199      	str	r1, [r3, #24]
 80031c8:	6998      	ldr	r0, [r3, #24]
 80031ca:	f240 411e 	movw	r1, #1054	; 0x41e
 80031ce:	f000 0010 	and.w	r0, r0, #16
 80031d2:	9002      	str	r0, [sp, #8]
 80031d4:	9802      	ldr	r0, [sp, #8]
 80031d6:	699c      	ldr	r4, [r3, #24]
 80031d8:	489c      	ldr	r0, [pc, #624]	; (800344c <main+0x2ac>)
 80031da:	f044 0420 	orr.w	r4, r4, #32
 80031de:	619c      	str	r4, [r3, #24]
 80031e0:	699d      	ldr	r5, [r3, #24]
 80031e2:	2403      	movs	r4, #3
 80031e4:	f005 0520 	and.w	r5, r5, #32
 80031e8:	9503      	str	r5, [sp, #12]
 80031ea:	9d03      	ldr	r5, [sp, #12]
 80031ec:	699d      	ldr	r5, [r3, #24]
 80031ee:	f045 0504 	orr.w	r5, r5, #4
 80031f2:	619d      	str	r5, [r3, #24]
 80031f4:	699f      	ldr	r7, [r3, #24]
 80031f6:	2502      	movs	r5, #2
 80031f8:	f007 0704 	and.w	r7, r7, #4
 80031fc:	9704      	str	r7, [sp, #16]
 80031fe:	9f04      	ldr	r7, [sp, #16]
 8003200:	699f      	ldr	r7, [r3, #24]
 8003202:	f047 0708 	orr.w	r7, r7, #8
 8003206:	619f      	str	r7, [r3, #24]
 8003208:	699b      	ldr	r3, [r3, #24]
 800320a:	f003 0308 	and.w	r3, r3, #8
 800320e:	9305      	str	r3, [sp, #20]
 8003210:	9b05      	ldr	r3, [sp, #20]
 8003212:	f7fd fd4d 	bl	8000cb0 <HAL_GPIO_WritePin>
 8003216:	4642      	mov	r2, r8
 8003218:	f248 11e0 	movw	r1, #33248	; 0x81e0
 800321c:	488c      	ldr	r0, [pc, #560]	; (8003450 <main+0x2b0>)
 800321e:	f7fd fd47 	bl	8000cb0 <HAL_GPIO_WritePin>
 8003222:	f44f 4360 	mov.w	r3, #57344	; 0xe000
 8003226:	a906      	add	r1, sp, #24
 8003228:	488a      	ldr	r0, [pc, #552]	; (8003454 <main+0x2b4>)
 800322a:	e9cd 3406 	strd	r3, r4, [sp, #24]
 800322e:	f7fd fc45 	bl	8000abc <HAL_GPIO_Init>
 8003232:	f240 33e1 	movw	r3, #993	; 0x3e1
 8003236:	a906      	add	r1, sp, #24
 8003238:	4884      	ldr	r0, [pc, #528]	; (800344c <main+0x2ac>)
 800323a:	e9cd 3406 	strd	r3, r4, [sp, #24]
 800323e:	f7fd fc3d 	bl	8000abc <HAL_GPIO_Init>
 8003242:	f240 431e 	movw	r3, #1054	; 0x41e
 8003246:	a906      	add	r1, sp, #24
 8003248:	4880      	ldr	r0, [pc, #512]	; (800344c <main+0x2ac>)
 800324a:	e9cd 3606 	strd	r3, r6, [sp, #24]
 800324e:	9509      	str	r5, [sp, #36]	; 0x24
 8003250:	f8cd 8020 	str.w	r8, [sp, #32]
 8003254:	f7fd fc32 	bl	8000abc <HAL_GPIO_Init>
 8003258:	f647 6307 	movw	r3, #32263	; 0x7e07
 800325c:	a906      	add	r1, sp, #24
 800325e:	487c      	ldr	r0, [pc, #496]	; (8003450 <main+0x2b0>)
 8003260:	e9cd 3406 	strd	r3, r4, [sp, #24]
 8003264:	f7fd fc2a 	bl	8000abc <HAL_GPIO_Init>
 8003268:	f248 13e0 	movw	r3, #33248	; 0x81e0
 800326c:	a906      	add	r1, sp, #24
 800326e:	4878      	ldr	r0, [pc, #480]	; (8003450 <main+0x2b0>)
 8003270:	9306      	str	r3, [sp, #24]
 8003272:	e9cd 6807 	strd	r6, r8, [sp, #28]
 8003276:	9509      	str	r5, [sp, #36]	; 0x24
 8003278:	f7fd fc20 	bl	8000abc <HAL_GPIO_Init>
 800327c:	f000 fc12 	bl	8003aa4 <MX_USB_DEVICE_Init>
 8003280:	f7ff fe7a 	bl	8002f78 <DWT_Delay_Init>
 8003284:	2032      	movs	r0, #50	; 0x32
 8003286:	f7fd fb99 	bl	80009bc <HAL_Delay>
 800328a:	f242 3038 	movw	r0, #9016	; 0x2338
 800328e:	f7ff fec7 	bl	8003020 <DDS_Set>
 8003292:	200a      	movs	r0, #10
 8003294:	f7fd fb92 	bl	80009bc <HAL_Delay>
 8003298:	4b6f      	ldr	r3, [pc, #444]	; (8003458 <main+0x2b8>)
 800329a:	4e70      	ldr	r6, [pc, #448]	; (800345c <main+0x2bc>)
 800329c:	f8a3 8000 	strh.w	r8, [r3]
 80032a0:	4b6f      	ldr	r3, [pc, #444]	; (8003460 <main+0x2c0>)
 80032a2:	4c6b      	ldr	r4, [pc, #428]	; (8003450 <main+0x2b0>)
 80032a4:	f883 8000 	strb.w	r8, [r3]
 80032a8:	4b6e      	ldr	r3, [pc, #440]	; (8003464 <main+0x2c4>)
 80032aa:	4d68      	ldr	r5, [pc, #416]	; (800344c <main+0x2ac>)
 80032ac:	f8a3 8000 	strh.w	r8, [r3]
 80032b0:	4b6d      	ldr	r3, [pc, #436]	; (8003468 <main+0x2c8>)
 80032b2:	f8a3 8000 	strh.w	r8, [r3]
 80032b6:	4b6d      	ldr	r3, [pc, #436]	; (800346c <main+0x2cc>)
 80032b8:	f8a3 8000 	strh.w	r8, [r3]
 80032bc:	4b6c      	ldr	r3, [pc, #432]	; (8003470 <main+0x2d0>)
 80032be:	f8a3 8000 	strh.w	r8, [r3]
 80032c2:	f8df 81b8 	ldr.w	r8, [pc, #440]	; 800347c <main+0x2dc>
 80032c6:	f8df 91b8 	ldr.w	r9, [pc, #440]	; 8003480 <main+0x2e0>
 80032ca:	4b65      	ldr	r3, [pc, #404]	; (8003460 <main+0x2c0>)
 80032cc:	781f      	ldrb	r7, [r3, #0]
 80032ce:	b2ff      	uxtb	r7, r7
 80032d0:	2f01      	cmp	r7, #1
 80032d2:	f000 81f9 	beq.w	80036c8 <main+0x528>
 80032d6:	4b60      	ldr	r3, [pc, #384]	; (8003458 <main+0x2b8>)
 80032d8:	881b      	ldrh	r3, [r3, #0]
 80032da:	2b01      	cmp	r3, #1
 80032dc:	d1f5      	bne.n	80032ca <main+0x12a>
 80032de:	4b65      	ldr	r3, [pc, #404]	; (8003474 <main+0x2d4>)
 80032e0:	881f      	ldrh	r7, [r3, #0]
 80032e2:	2f00      	cmp	r7, #0
 80032e4:	d0ed      	beq.n	80032c2 <main+0x122>
 80032e6:	2300      	movs	r3, #0
 80032e8:	2720      	movs	r7, #32
 80032ea:	f04f 0808 	mov.w	r8, #8
 80032ee:	461a      	mov	r2, r3
 80032f0:	9300      	str	r3, [sp, #0]
 80032f2:	2302      	movs	r3, #2
 80032f4:	616b      	str	r3, [r5, #20]
 80032f6:	4b60      	ldr	r3, [pc, #384]	; (8003478 <main+0x2d8>)
 80032f8:	f853 0022 	ldr.w	r0, [r3, r2, lsl #2]
 80032fc:	f7fd f86a 	bl	80003d4 <__aeabi_ui2d>
 8003300:	a34f      	add	r3, pc, #316	; (adr r3, 8003440 <main+0x2a0>)
 8003302:	e9d3 2300 	ldrd	r2, r3, [r3]
 8003306:	f7fd f8df 	bl	80004c8 <__aeabi_dmul>
 800330a:	f7fd faef 	bl	80008ec <__aeabi_d2uiz>
 800330e:	f44f 7180 	mov.w	r1, #256	; 0x100
 8003312:	2240      	movs	r2, #64	; 0x40
 8003314:	6121      	str	r1, [r4, #16]
 8003316:	b283      	uxth	r3, r0
 8003318:	6127      	str	r7, [r4, #16]
 800331a:	6161      	str	r1, [r4, #20]
 800331c:	6162      	str	r2, [r4, #20]
 800331e:	bf00      	nop
 8003320:	6167      	str	r7, [r4, #20]
 8003322:	6127      	str	r7, [r4, #16]
 8003324:	6122      	str	r2, [r4, #16]
 8003326:	bf00      	nop
 8003328:	0499      	lsls	r1, r3, #18
 800332a:	6167      	str	r7, [r4, #20]
 800332c:	6127      	str	r7, [r4, #16]
 800332e:	bf54      	ite	pl
 8003330:	6162      	strpl	r2, [r4, #20]
 8003332:	6122      	strmi	r2, [r4, #16]
 8003334:	bf00      	nop
 8003336:	2240      	movs	r2, #64	; 0x40
 8003338:	04d9      	lsls	r1, r3, #19
 800333a:	6167      	str	r7, [r4, #20]
 800333c:	6127      	str	r7, [r4, #16]
 800333e:	bf54      	ite	pl
 8003340:	6162      	strpl	r2, [r4, #20]
 8003342:	6122      	strmi	r2, [r4, #16]
 8003344:	bf00      	nop
 8003346:	2240      	movs	r2, #64	; 0x40
 8003348:	0519      	lsls	r1, r3, #20
 800334a:	6167      	str	r7, [r4, #20]
 800334c:	6127      	str	r7, [r4, #16]
 800334e:	bf54      	ite	pl
 8003350:	6162      	strpl	r2, [r4, #20]
 8003352:	6122      	strmi	r2, [r4, #16]
 8003354:	bf00      	nop
 8003356:	2240      	movs	r2, #64	; 0x40
 8003358:	0559      	lsls	r1, r3, #21
 800335a:	6167      	str	r7, [r4, #20]
 800335c:	6127      	str	r7, [r4, #16]
 800335e:	bf54      	ite	pl
 8003360:	6162      	strpl	r2, [r4, #20]
 8003362:	6122      	strmi	r2, [r4, #16]
 8003364:	bf00      	nop
 8003366:	2240      	movs	r2, #64	; 0x40
 8003368:	0599      	lsls	r1, r3, #22
 800336a:	6167      	str	r7, [r4, #20]
 800336c:	6127      	str	r7, [r4, #16]
 800336e:	bf54      	ite	pl
 8003370:	6162      	strpl	r2, [r4, #20]
 8003372:	6122      	strmi	r2, [r4, #16]
 8003374:	bf00      	nop
 8003376:	2240      	movs	r2, #64	; 0x40
 8003378:	05d9      	lsls	r1, r3, #23
 800337a:	6167      	str	r7, [r4, #20]
 800337c:	6127      	str	r7, [r4, #16]
 800337e:	bf54      	ite	pl
 8003380:	6162      	strpl	r2, [r4, #20]
 8003382:	6122      	strmi	r2, [r4, #16]
 8003384:	bf00      	nop
 8003386:	2240      	movs	r2, #64	; 0x40
 8003388:	0619      	lsls	r1, r3, #24
 800338a:	6167      	str	r7, [r4, #20]
 800338c:	6127      	str	r7, [r4, #16]
 800338e:	bf54      	ite	pl
 8003390:	6162      	strpl	r2, [r4, #20]
 8003392:	6122      	strmi	r2, [r4, #16]
 8003394:	bf00      	nop
 8003396:	2240      	movs	r2, #64	; 0x40
 8003398:	0659      	lsls	r1, r3, #25
 800339a:	6167      	str	r7, [r4, #20]
 800339c:	6127      	str	r7, [r4, #16]
 800339e:	bf54      	ite	pl
 80033a0:	6162      	strpl	r2, [r4, #20]
 80033a2:	6122      	strmi	r2, [r4, #16]
 80033a4:	bf00      	nop
 80033a6:	2240      	movs	r2, #64	; 0x40
 80033a8:	0699      	lsls	r1, r3, #26
 80033aa:	6167      	str	r7, [r4, #20]
 80033ac:	6127      	str	r7, [r4, #16]
 80033ae:	bf54      	ite	pl
 80033b0:	6162      	strpl	r2, [r4, #20]
 80033b2:	6122      	strmi	r2, [r4, #16]
 80033b4:	bf00      	nop
 80033b6:	2240      	movs	r2, #64	; 0x40
 80033b8:	06d9      	lsls	r1, r3, #27
 80033ba:	6167      	str	r7, [r4, #20]
 80033bc:	6127      	str	r7, [r4, #16]
 80033be:	bf54      	ite	pl
 80033c0:	6162      	strpl	r2, [r4, #20]
 80033c2:	6122      	strmi	r2, [r4, #16]
 80033c4:	bf00      	nop
 80033c6:	2240      	movs	r2, #64	; 0x40
 80033c8:	0719      	lsls	r1, r3, #28
 80033ca:	6167      	str	r7, [r4, #20]
 80033cc:	6127      	str	r7, [r4, #16]
 80033ce:	bf54      	ite	pl
 80033d0:	6162      	strpl	r2, [r4, #20]
 80033d2:	6122      	strmi	r2, [r4, #16]
 80033d4:	bf00      	nop
 80033d6:	2240      	movs	r2, #64	; 0x40
 80033d8:	0759      	lsls	r1, r3, #29
 80033da:	6167      	str	r7, [r4, #20]
 80033dc:	6127      	str	r7, [r4, #16]
 80033de:	bf54      	ite	pl
 80033e0:	6162      	strpl	r2, [r4, #20]
 80033e2:	6122      	strmi	r2, [r4, #16]
 80033e4:	bf00      	nop
 80033e6:	2240      	movs	r2, #64	; 0x40
 80033e8:	0799      	lsls	r1, r3, #30
 80033ea:	6167      	str	r7, [r4, #20]
 80033ec:	6127      	str	r7, [r4, #16]
 80033ee:	bf54      	ite	pl
 80033f0:	6162      	strpl	r2, [r4, #20]
 80033f2:	6122      	strmi	r2, [r4, #16]
 80033f4:	bf00      	nop
 80033f6:	f013 0f01 	tst.w	r3, #1
 80033fa:	f04f 0340 	mov.w	r3, #64	; 0x40
 80033fe:	6167      	str	r7, [r4, #20]
 8003400:	6127      	str	r7, [r4, #16]
 8003402:	bf0c      	ite	eq
 8003404:	6163      	streq	r3, [r4, #20]
 8003406:	6123      	strne	r3, [r4, #16]
 8003408:	bf00      	nop
 800340a:	6167      	str	r7, [r4, #20]
 800340c:	6127      	str	r7, [r4, #16]
 800340e:	bf00      	nop
 8003410:	f44f 7380 	mov.w	r3, #256	; 0x100
 8003414:	2240      	movs	r2, #64	; 0x40
 8003416:	6123      	str	r3, [r4, #16]
 8003418:	f3c0 308f 	ubfx	r0, r0, #14, #16
 800341c:	6123      	str	r3, [r4, #16]
 800341e:	6127      	str	r7, [r4, #16]
 8003420:	6163      	str	r3, [r4, #20]
 8003422:	6162      	str	r2, [r4, #20]
 8003424:	bf00      	nop
 8003426:	6167      	str	r7, [r4, #20]
 8003428:	6127      	str	r7, [r4, #16]
 800342a:	6122      	str	r2, [r4, #16]
 800342c:	bf00      	nop
 800342e:	0483      	lsls	r3, r0, #18
 8003430:	6167      	str	r7, [r4, #20]
 8003432:	6127      	str	r7, [r4, #16]
 8003434:	bf58      	it	pl
 8003436:	6162      	strpl	r2, [r4, #20]
 8003438:	e024      	b.n	8003484 <main+0x2e4>
 800343a:	bf00      	nop
 800343c:	f3af 8000 	nop.w
 8003440:	1d3ed528 	.word	0x1d3ed528
 8003444:	4015798f 	.word	0x4015798f
 8003448:	40021000 	.word	0x40021000
 800344c:	40010800 	.word	0x40010800
 8003450:	40010c00 	.word	0x40010c00
 8003454:	40011000 	.word	0x40011000
 8003458:	200003b4 	.word	0x200003b4
 800345c:	20000654 	.word	0x20000654
 8003460:	200001bd 	.word	0x200001bd
 8003464:	200001be 	.word	0x200001be
 8003468:	200001c2 	.word	0x200001c2
 800346c:	200001c4 	.word	0x200001c4
 8003470:	200004c0 	.word	0x200004c0
 8003474:	20000698 	.word	0x20000698
 8003478:	200004c4 	.word	0x200004c4
 800347c:	20000658 	.word	0x20000658
 8003480:	20000764 	.word	0x20000764
 8003484:	bf48      	it	mi
 8003486:	6122      	strmi	r2, [r4, #16]
 8003488:	bf00      	nop
 800348a:	2340      	movs	r3, #64	; 0x40
 800348c:	04c1      	lsls	r1, r0, #19
 800348e:	6167      	str	r7, [r4, #20]
 8003490:	6127      	str	r7, [r4, #16]
 8003492:	bf54      	ite	pl
 8003494:	6163      	strpl	r3, [r4, #20]
 8003496:	6123      	strmi	r3, [r4, #16]
 8003498:	bf00      	nop
 800349a:	2340      	movs	r3, #64	; 0x40
 800349c:	0502      	lsls	r2, r0, #20
 800349e:	6167      	str	r7, [r4, #20]
 80034a0:	6127      	str	r7, [r4, #16]
 80034a2:	bf54      	ite	pl
 80034a4:	6163      	strpl	r3, [r4, #20]
 80034a6:	6123      	strmi	r3, [r4, #16]
 80034a8:	bf00      	nop
 80034aa:	2340      	movs	r3, #64	; 0x40
 80034ac:	0541      	lsls	r1, r0, #21
 80034ae:	6167      	str	r7, [r4, #20]
 80034b0:	6127      	str	r7, [r4, #16]
 80034b2:	bf54      	ite	pl
 80034b4:	6163      	strpl	r3, [r4, #20]
 80034b6:	6123      	strmi	r3, [r4, #16]
 80034b8:	bf00      	nop
 80034ba:	2340      	movs	r3, #64	; 0x40
 80034bc:	0582      	lsls	r2, r0, #22
 80034be:	6167      	str	r7, [r4, #20]
 80034c0:	6127      	str	r7, [r4, #16]
 80034c2:	bf54      	ite	pl
 80034c4:	6163      	strpl	r3, [r4, #20]
 80034c6:	6123      	strmi	r3, [r4, #16]
 80034c8:	bf00      	nop
 80034ca:	2340      	movs	r3, #64	; 0x40
 80034cc:	05c1      	lsls	r1, r0, #23
 80034ce:	6167      	str	r7, [r4, #20]
 80034d0:	6127      	str	r7, [r4, #16]
 80034d2:	bf54      	ite	pl
 80034d4:	6163      	strpl	r3, [r4, #20]
 80034d6:	6123      	strmi	r3, [r4, #16]
 80034d8:	bf00      	nop
 80034da:	2340      	movs	r3, #64	; 0x40
 80034dc:	0602      	lsls	r2, r0, #24
 80034de:	6167      	str	r7, [r4, #20]
 80034e0:	6127      	str	r7, [r4, #16]
 80034e2:	bf54      	ite	pl
 80034e4:	6163      	strpl	r3, [r4, #20]
 80034e6:	6123      	strmi	r3, [r4, #16]
 80034e8:	bf00      	nop
 80034ea:	2340      	movs	r3, #64	; 0x40
 80034ec:	0641      	lsls	r1, r0, #25
 80034ee:	6167      	str	r7, [r4, #20]
 80034f0:	6127      	str	r7, [r4, #16]
 80034f2:	bf54      	ite	pl
 80034f4:	6163      	strpl	r3, [r4, #20]
 80034f6:	6123      	strmi	r3, [r4, #16]
 80034f8:	bf00      	nop
 80034fa:	2340      	movs	r3, #64	; 0x40
 80034fc:	0682      	lsls	r2, r0, #26
 80034fe:	6167      	str	r7, [r4, #20]
 8003500:	6127      	str	r7, [r4, #16]
 8003502:	bf54      	ite	pl
 8003504:	6163      	strpl	r3, [r4, #20]
 8003506:	6123      	strmi	r3, [r4, #16]
 8003508:	bf00      	nop
 800350a:	2340      	movs	r3, #64	; 0x40
 800350c:	06c1      	lsls	r1, r0, #27
 800350e:	6167      	str	r7, [r4, #20]
 8003510:	6127      	str	r7, [r4, #16]
 8003512:	bf54      	ite	pl
 8003514:	6163      	strpl	r3, [r4, #20]
 8003516:	6123      	strmi	r3, [r4, #16]
 8003518:	bf00      	nop
 800351a:	2340      	movs	r3, #64	; 0x40
 800351c:	0702      	lsls	r2, r0, #28
 800351e:	6167      	str	r7, [r4, #20]
 8003520:	6127      	str	r7, [r4, #16]
 8003522:	bf54      	ite	pl
 8003524:	6163      	strpl	r3, [r4, #20]
 8003526:	6123      	strmi	r3, [r4, #16]
 8003528:	bf00      	nop
 800352a:	2340      	movs	r3, #64	; 0x40
 800352c:	0741      	lsls	r1, r0, #29
 800352e:	6167      	str	r7, [r4, #20]
 8003530:	6127      	str	r7, [r4, #16]
 8003532:	bf54      	ite	pl
 8003534:	6163      	strpl	r3, [r4, #20]
 8003536:	6123      	strmi	r3, [r4, #16]
 8003538:	bf00      	nop
 800353a:	2340      	movs	r3, #64	; 0x40
 800353c:	0782      	lsls	r2, r0, #30
 800353e:	6167      	str	r7, [r4, #20]
 8003540:	6127      	str	r7, [r4, #16]
 8003542:	bf54      	ite	pl
 8003544:	6163      	strpl	r3, [r4, #20]
 8003546:	6123      	strmi	r3, [r4, #16]
 8003548:	bf00      	nop
 800354a:	2340      	movs	r3, #64	; 0x40
 800354c:	07c0      	lsls	r0, r0, #31
 800354e:	6167      	str	r7, [r4, #20]
 8003550:	6127      	str	r7, [r4, #16]
 8003552:	bf54      	ite	pl
 8003554:	6163      	strpl	r3, [r4, #20]
 8003556:	6123      	strmi	r3, [r4, #16]
 8003558:	bf00      	nop
 800355a:	6167      	str	r7, [r4, #20]
 800355c:	6127      	str	r7, [r4, #16]
 800355e:	bf00      	nop
 8003560:	f44f 7280 	mov.w	r2, #256	; 0x100
 8003564:	9900      	ldr	r1, [sp, #0]
 8003566:	4b52      	ldr	r3, [pc, #328]	; (80036b0 <main+0x510>)
 8003568:	f833 3011 	ldrh.w	r3, [r3, r1, lsl #1]
 800356c:	6122      	str	r2, [r4, #16]
 800356e:	f8c5 8014 	str.w	r8, [r5, #20]
 8003572:	bf00      	nop
 8003574:	2210      	movs	r2, #16
 8003576:	616a      	str	r2, [r5, #20]
 8003578:	bf00      	nop
 800357a:	2204      	movs	r2, #4
 800357c:	0619      	lsls	r1, r3, #24
 800357e:	bf54      	ite	pl
 8003580:	616a      	strpl	r2, [r5, #20]
 8003582:	612a      	strmi	r2, [r5, #16]
 8003584:	bf00      	nop
 8003586:	f8c5 8010 	str.w	r8, [r5, #16]
 800358a:	bf00      	nop
 800358c:	2204      	movs	r2, #4
 800358e:	0658      	lsls	r0, r3, #25
 8003590:	f8c5 8014 	str.w	r8, [r5, #20]
 8003594:	bf54      	ite	pl
 8003596:	616a      	strpl	r2, [r5, #20]
 8003598:	612a      	strmi	r2, [r5, #16]
 800359a:	bf00      	nop
 800359c:	f8c5 8010 	str.w	r8, [r5, #16]
 80035a0:	bf00      	nop
 80035a2:	2204      	movs	r2, #4
 80035a4:	0699      	lsls	r1, r3, #26
 80035a6:	f8c5 8014 	str.w	r8, [r5, #20]
 80035aa:	bf54      	ite	pl
 80035ac:	616a      	strpl	r2, [r5, #20]
 80035ae:	612a      	strmi	r2, [r5, #16]
 80035b0:	bf00      	nop
 80035b2:	f8c5 8010 	str.w	r8, [r5, #16]
 80035b6:	bf00      	nop
 80035b8:	2204      	movs	r2, #4
 80035ba:	06d8      	lsls	r0, r3, #27
 80035bc:	f8c5 8014 	str.w	r8, [r5, #20]
 80035c0:	bf54      	ite	pl
 80035c2:	616a      	strpl	r2, [r5, #20]
 80035c4:	612a      	strmi	r2, [r5, #16]
 80035c6:	bf00      	nop
 80035c8:	f8c5 8010 	str.w	r8, [r5, #16]
 80035cc:	bf00      	nop
 80035ce:	2204      	movs	r2, #4
 80035d0:	0719      	lsls	r1, r3, #28
 80035d2:	f8c5 8014 	str.w	r8, [r5, #20]
 80035d6:	bf54      	ite	pl
 80035d8:	616a      	strpl	r2, [r5, #20]
 80035da:	612a      	strmi	r2, [r5, #16]
 80035dc:	bf00      	nop
 80035de:	f8c5 8010 	str.w	r8, [r5, #16]
 80035e2:	bf00      	nop
 80035e4:	2204      	movs	r2, #4
 80035e6:	0758      	lsls	r0, r3, #29
 80035e8:	f8c5 8014 	str.w	r8, [r5, #20]
 80035ec:	bf54      	ite	pl
 80035ee:	616a      	strpl	r2, [r5, #20]
 80035f0:	612a      	strmi	r2, [r5, #16]
 80035f2:	bf00      	nop
 80035f4:	f8c5 8010 	str.w	r8, [r5, #16]
 80035f8:	bf00      	nop
 80035fa:	2204      	movs	r2, #4
 80035fc:	0799      	lsls	r1, r3, #30
 80035fe:	f8c5 8014 	str.w	r8, [r5, #20]
 8003602:	bf54      	ite	pl
 8003604:	616a      	strpl	r2, [r5, #20]
 8003606:	612a      	strmi	r2, [r5, #16]
 8003608:	bf00      	nop
 800360a:	f8c5 8010 	str.w	r8, [r5, #16]
 800360e:	bf00      	nop
 8003610:	f013 0f01 	tst.w	r3, #1
 8003614:	f04f 0304 	mov.w	r3, #4
 8003618:	f8c5 8014 	str.w	r8, [r5, #20]
 800361c:	bf0c      	ite	eq
 800361e:	616b      	streq	r3, [r5, #20]
 8003620:	612b      	strne	r3, [r5, #16]
 8003622:	bf00      	nop
 8003624:	f8c5 8010 	str.w	r8, [r5, #16]
 8003628:	bf00      	nop
 800362a:	f8c5 8014 	str.w	r8, [r5, #20]
 800362e:	bf00      	nop
 8003630:	bf00      	nop
 8003632:	2204      	movs	r2, #4
 8003634:	2302      	movs	r3, #2
 8003636:	2110      	movs	r1, #16
 8003638:	f24c 3950 	movw	r9, #50000	; 0xc350
 800363c:	6129      	str	r1, [r5, #16]
 800363e:	616a      	str	r2, [r5, #20]
 8003640:	612b      	str	r3, [r5, #16]
 8003642:	9a00      	ldr	r2, [sp, #0]
 8003644:	4b1b      	ldr	r3, [pc, #108]	; (80036b4 <main+0x514>)
 8003646:	f8df a07c 	ldr.w	sl, [pc, #124]	; 80036c4 <main+0x524>
 800364a:	f853 3022 	ldr.w	r3, [r3, r2, lsl #2]
 800364e:	6033      	str	r3, [r6, #0]
 8003650:	454b      	cmp	r3, r9
 8003652:	d918      	bls.n	8003686 <main+0x4e6>
 8003654:	f5a3 4343 	sub.w	r3, r3, #49920	; 0xc300
 8003658:	3b50      	subs	r3, #80	; 0x50
 800365a:	6033      	str	r3, [r6, #0]
 800365c:	f8da b004 	ldr.w	fp, [sl, #4]
 8003660:	f7fe fa2c 	bl	8001abc <HAL_RCC_GetHCLKFreq>
 8003664:	4b14      	ldr	r3, [pc, #80]	; (80036b8 <main+0x518>)
 8003666:	fba3 3200 	umull	r3, r2, r3, r0
 800366a:	0c92      	lsrs	r2, r2, #18
 800366c:	fb09 f202 	mul.w	r2, r9, r2
 8003670:	f8da 3004 	ldr.w	r3, [sl, #4]
 8003674:	eba3 030b 	sub.w	r3, r3, fp
 8003678:	4293      	cmp	r3, r2
 800367a:	d3f9      	bcc.n	8003670 <main+0x4d0>
 800367c:	4b0f      	ldr	r3, [pc, #60]	; (80036bc <main+0x51c>)
 800367e:	781a      	ldrb	r2, [r3, #0]
 8003680:	6833      	ldr	r3, [r6, #0]
 8003682:	2a01      	cmp	r2, #1
 8003684:	d1e4      	bne.n	8003650 <main+0x4b0>
 8003686:	b123      	cbz	r3, 8003692 <main+0x4f2>
 8003688:	4a0c      	ldr	r2, [pc, #48]	; (80036bc <main+0x51c>)
 800368a:	7812      	ldrb	r2, [r2, #0]
 800368c:	2a00      	cmp	r2, #0
 800368e:	f000 80d9 	beq.w	8003844 <main+0x6a4>
 8003692:	2302      	movs	r3, #2
 8003694:	616b      	str	r3, [r5, #20]
 8003696:	9b00      	ldr	r3, [sp, #0]
 8003698:	f103 0901 	add.w	r9, r3, #1
 800369c:	4b08      	ldr	r3, [pc, #32]	; (80036c0 <main+0x520>)
 800369e:	fa1f f289 	uxth.w	r2, r9
 80036a2:	881b      	ldrh	r3, [r3, #0]
 80036a4:	9200      	str	r2, [sp, #0]
 80036a6:	4293      	cmp	r3, r2
 80036a8:	f63f ae23 	bhi.w	80032f2 <main+0x152>
 80036ac:	e609      	b.n	80032c2 <main+0x122>
 80036ae:	bf00      	nop
 80036b0:	200003f8 	.word	0x200003f8
 80036b4:	20000224 	.word	0x20000224
 80036b8:	431bde83 	.word	0x431bde83
 80036bc:	200001bd 	.word	0x200001bd
 80036c0:	20000698 	.word	0x20000698
 80036c4:	e0001000 	.word	0xe0001000
 80036c8:	f04f 0a00 	mov.w	sl, #0
 80036cc:	4b96      	ldr	r3, [pc, #600]	; (8003928 <main+0x788>)
 80036ce:	4a97      	ldr	r2, [pc, #604]	; (800392c <main+0x78c>)
 80036d0:	f893 b000 	ldrb.w	fp, [r3]
 80036d4:	4b96      	ldr	r3, [pc, #600]	; (8003930 <main+0x790>)
 80036d6:	f882 a000 	strb.w	sl, [r2]
 80036da:	781b      	ldrb	r3, [r3, #0]
 80036dc:	4a95      	ldr	r2, [pc, #596]	; (8003934 <main+0x794>)
 80036de:	455b      	cmp	r3, fp
 80036e0:	f8a2 a000 	strh.w	sl, [r2]
 80036e4:	f000 80c3 	beq.w	800386e <main+0x6ce>
 80036e8:	4993      	ldr	r1, [pc, #588]	; (8003938 <main+0x798>)
 80036ea:	223f      	movs	r2, #63	; 0x3f
 80036ec:	1e48      	subs	r0, r1, #1
 80036ee:	f000 fc99 	bl	8004024 <memmove>
 80036f2:	4b8f      	ldr	r3, [pc, #572]	; (8003930 <main+0x790>)
 80036f4:	4a91      	ldr	r2, [pc, #580]	; (800393c <main+0x79c>)
 80036f6:	781b      	ldrb	r3, [r3, #0]
 80036f8:	f8a2 a000 	strh.w	sl, [r2]
 80036fc:	4a90      	ldr	r2, [pc, #576]	; (8003940 <main+0x7a0>)
 80036fe:	459b      	cmp	fp, r3
 8003700:	f8a2 a000 	strh.w	sl, [r2]
 8003704:	bf18      	it	ne
 8003706:	4653      	movne	r3, sl
 8003708:	f000 80b4 	beq.w	8003874 <main+0x6d4>
 800370c:	4a86      	ldr	r2, [pc, #536]	; (8003928 <main+0x788>)
 800370e:	4988      	ldr	r1, [pc, #544]	; (8003930 <main+0x790>)
 8003710:	7852      	ldrb	r2, [r2, #1]
 8003712:	7849      	ldrb	r1, [r1, #1]
 8003714:	4291      	cmp	r1, r2
 8003716:	d102      	bne.n	800371e <main+0x57e>
 8003718:	463b      	mov	r3, r7
 800371a:	4a88      	ldr	r2, [pc, #544]	; (800393c <main+0x79c>)
 800371c:	8017      	strh	r7, [r2, #0]
 800371e:	4a82      	ldr	r2, [pc, #520]	; (8003928 <main+0x788>)
 8003720:	4983      	ldr	r1, [pc, #524]	; (8003930 <main+0x790>)
 8003722:	7892      	ldrb	r2, [r2, #2]
 8003724:	7889      	ldrb	r1, [r1, #2]
 8003726:	4291      	cmp	r1, r2
 8003728:	d103      	bne.n	8003732 <main+0x592>
 800372a:	3301      	adds	r3, #1
 800372c:	4a83      	ldr	r2, [pc, #524]	; (800393c <main+0x79c>)
 800372e:	b29b      	uxth	r3, r3
 8003730:	8013      	strh	r3, [r2, #0]
 8003732:	4a7d      	ldr	r2, [pc, #500]	; (8003928 <main+0x788>)
 8003734:	497e      	ldr	r1, [pc, #504]	; (8003930 <main+0x790>)
 8003736:	78d2      	ldrb	r2, [r2, #3]
 8003738:	78c9      	ldrb	r1, [r1, #3]
 800373a:	4291      	cmp	r1, r2
 800373c:	d103      	bne.n	8003746 <main+0x5a6>
 800373e:	3301      	adds	r3, #1
 8003740:	4a7e      	ldr	r2, [pc, #504]	; (800393c <main+0x79c>)
 8003742:	b29b      	uxth	r3, r3
 8003744:	8013      	strh	r3, [r2, #0]
 8003746:	4a78      	ldr	r2, [pc, #480]	; (8003928 <main+0x788>)
 8003748:	4979      	ldr	r1, [pc, #484]	; (8003930 <main+0x790>)
 800374a:	7912      	ldrb	r2, [r2, #4]
 800374c:	7909      	ldrb	r1, [r1, #4]
 800374e:	4291      	cmp	r1, r2
 8003750:	d103      	bne.n	800375a <main+0x5ba>
 8003752:	3301      	adds	r3, #1
 8003754:	4a79      	ldr	r2, [pc, #484]	; (800393c <main+0x79c>)
 8003756:	b29b      	uxth	r3, r3
 8003758:	8013      	strh	r3, [r2, #0]
 800375a:	4a73      	ldr	r2, [pc, #460]	; (8003928 <main+0x788>)
 800375c:	4974      	ldr	r1, [pc, #464]	; (8003930 <main+0x790>)
 800375e:	7952      	ldrb	r2, [r2, #5]
 8003760:	7949      	ldrb	r1, [r1, #5]
 8003762:	4291      	cmp	r1, r2
 8003764:	d103      	bne.n	800376e <main+0x5ce>
 8003766:	3301      	adds	r3, #1
 8003768:	4a74      	ldr	r2, [pc, #464]	; (800393c <main+0x79c>)
 800376a:	b29b      	uxth	r3, r3
 800376c:	8013      	strh	r3, [r2, #0]
 800376e:	4a6e      	ldr	r2, [pc, #440]	; (8003928 <main+0x788>)
 8003770:	496f      	ldr	r1, [pc, #444]	; (8003930 <main+0x790>)
 8003772:	7992      	ldrb	r2, [r2, #6]
 8003774:	7989      	ldrb	r1, [r1, #6]
 8003776:	4291      	cmp	r1, r2
 8003778:	d103      	bne.n	8003782 <main+0x5e2>
 800377a:	3301      	adds	r3, #1
 800377c:	4a6f      	ldr	r2, [pc, #444]	; (800393c <main+0x79c>)
 800377e:	b29b      	uxth	r3, r3
 8003780:	8013      	strh	r3, [r2, #0]
 8003782:	4a69      	ldr	r2, [pc, #420]	; (8003928 <main+0x788>)
 8003784:	496a      	ldr	r1, [pc, #424]	; (8003930 <main+0x790>)
 8003786:	79d2      	ldrb	r2, [r2, #7]
 8003788:	79c9      	ldrb	r1, [r1, #7]
 800378a:	4291      	cmp	r1, r2
 800378c:	d103      	bne.n	8003796 <main+0x5f6>
 800378e:	3301      	adds	r3, #1
 8003790:	4a6a      	ldr	r2, [pc, #424]	; (800393c <main+0x79c>)
 8003792:	b29b      	uxth	r3, r3
 8003794:	8013      	strh	r3, [r2, #0]
 8003796:	4a64      	ldr	r2, [pc, #400]	; (8003928 <main+0x788>)
 8003798:	4965      	ldr	r1, [pc, #404]	; (8003930 <main+0x790>)
 800379a:	7a12      	ldrb	r2, [r2, #8]
 800379c:	7a09      	ldrb	r1, [r1, #8]
 800379e:	4291      	cmp	r1, r2
 80037a0:	d103      	bne.n	80037aa <main+0x60a>
 80037a2:	3301      	adds	r3, #1
 80037a4:	4a65      	ldr	r2, [pc, #404]	; (800393c <main+0x79c>)
 80037a6:	b29b      	uxth	r3, r3
 80037a8:	8013      	strh	r3, [r2, #0]
 80037aa:	4a5f      	ldr	r2, [pc, #380]	; (8003928 <main+0x788>)
 80037ac:	4960      	ldr	r1, [pc, #384]	; (8003930 <main+0x790>)
 80037ae:	7a52      	ldrb	r2, [r2, #9]
 80037b0:	7a49      	ldrb	r1, [r1, #9]
 80037b2:	4291      	cmp	r1, r2
 80037b4:	d063      	beq.n	800387e <main+0x6de>
 80037b6:	230c      	movs	r3, #12
 80037b8:	495d      	ldr	r1, [pc, #372]	; (8003930 <main+0x790>)
 80037ba:	485e      	ldr	r0, [pc, #376]	; (8003934 <main+0x794>)
 80037bc:	7a8a      	ldrb	r2, [r1, #10]
 80037be:	8003      	strh	r3, [r0, #0]
 80037c0:	7acb      	ldrb	r3, [r1, #11]
 80037c2:	4960      	ldr	r1, [pc, #384]	; (8003944 <main+0x7a4>)
 80037c4:	800a      	strh	r2, [r1, #0]
 80037c6:	4a60      	ldr	r2, [pc, #384]	; (8003948 <main+0x7a8>)
 80037c8:	8013      	strh	r3, [r2, #0]
 80037ca:	4860      	ldr	r0, [pc, #384]	; (800394c <main+0x7ac>)
 80037cc:	4960      	ldr	r1, [pc, #384]	; (8003950 <main+0x7b0>)
 80037ce:	e9d1 3200 	ldrd	r3, r2, [r1]
 80037d2:	6042      	str	r2, [r0, #4]
 80037d4:	6003      	str	r3, [r0, #0]
 80037d6:	7a0a      	ldrb	r2, [r1, #8]
 80037d8:	7a4b      	ldrb	r3, [r1, #9]
 80037da:	7202      	strb	r2, [r0, #8]
 80037dc:	7243      	strb	r3, [r0, #9]
 80037de:	4b5d      	ldr	r3, [pc, #372]	; (8003954 <main+0x7b4>)
 80037e0:	4a5d      	ldr	r2, [pc, #372]	; (8003958 <main+0x7b8>)
 80037e2:	6818      	ldr	r0, [r3, #0]
 80037e4:	6859      	ldr	r1, [r3, #4]
 80037e6:	6010      	str	r0, [r2, #0]
 80037e8:	6898      	ldr	r0, [r3, #8]
 80037ea:	6051      	str	r1, [r2, #4]
 80037ec:	68d9      	ldr	r1, [r3, #12]
 80037ee:	3310      	adds	r3, #16
 80037f0:	60d1      	str	r1, [r2, #12]
 80037f2:	495a      	ldr	r1, [pc, #360]	; (800395c <main+0x7bc>)
 80037f4:	6090      	str	r0, [r2, #8]
 80037f6:	428b      	cmp	r3, r1
 80037f8:	f102 0210 	add.w	r2, r2, #16
 80037fc:	d1f1      	bne.n	80037e2 <main+0x642>
 80037fe:	460b      	mov	r3, r1
 8003800:	f44f 4700 	mov.w	r7, #32768	; 0x8000
 8003804:	889b      	ldrh	r3, [r3, #4]
 8003806:	6809      	ldr	r1, [r1, #0]
 8003808:	4648      	mov	r0, r9
 800380a:	8093      	strh	r3, [r2, #4]
 800380c:	6011      	str	r1, [r2, #0]
 800380e:	2240      	movs	r2, #64	; 0x40
 8003810:	6127      	str	r7, [r4, #16]
 8003812:	4641      	mov	r1, r8
 8003814:	f7fe ff70 	bl	80026f8 <USBD_CUSTOM_HID_SendReport>
 8003818:	6167      	str	r7, [r4, #20]
 800381a:	2100      	movs	r1, #0
 800381c:	2240      	movs	r2, #64	; 0x40
 800381e:	4640      	mov	r0, r8
 8003820:	f000 fc19 	bl	8004056 <memset>
 8003824:	4b48      	ldr	r3, [pc, #288]	; (8003948 <main+0x7a8>)
 8003826:	881f      	ldrh	r7, [r3, #0]
 8003828:	4b46      	ldr	r3, [pc, #280]	; (8003944 <main+0x7a4>)
 800382a:	1e79      	subs	r1, r7, #1
 800382c:	881b      	ldrh	r3, [r3, #0]
 800382e:	428b      	cmp	r3, r1
 8003830:	db04      	blt.n	800383c <main+0x69c>
 8003832:	4b43      	ldr	r3, [pc, #268]	; (8003940 <main+0x7a0>)
 8003834:	881b      	ldrh	r3, [r3, #0]
 8003836:	2b01      	cmp	r3, #1
 8003838:	f000 80a2 	beq.w	8003980 <main+0x7e0>
 800383c:	2300      	movs	r3, #0
 800383e:	4a48      	ldr	r2, [pc, #288]	; (8003960 <main+0x7c0>)
 8003840:	8013      	strh	r3, [r2, #0]
 8003842:	e542      	b.n	80032ca <main+0x12a>
 8003844:	f8df b134 	ldr.w	fp, [pc, #308]	; 800397c <main+0x7dc>
 8003848:	9301      	str	r3, [sp, #4]
 800384a:	f8db a004 	ldr.w	sl, [fp, #4]
 800384e:	f7fe f935 	bl	8001abc <HAL_RCC_GetHCLKFreq>
 8003852:	4659      	mov	r1, fp
 8003854:	4b43      	ldr	r3, [pc, #268]	; (8003964 <main+0x7c4>)
 8003856:	fba3 3200 	umull	r3, r2, r3, r0
 800385a:	9b01      	ldr	r3, [sp, #4]
 800385c:	0c92      	lsrs	r2, r2, #18
 800385e:	fb03 f302 	mul.w	r3, r3, r2
 8003862:	684a      	ldr	r2, [r1, #4]
 8003864:	eba2 020a 	sub.w	r2, r2, sl
 8003868:	429a      	cmp	r2, r3
 800386a:	d3fa      	bcc.n	8003862 <main+0x6c2>
 800386c:	e711      	b.n	8003692 <main+0x4f2>
 800386e:	4b34      	ldr	r3, [pc, #208]	; (8003940 <main+0x7a0>)
 8003870:	f8a3 a000 	strh.w	sl, [r3]
 8003874:	2301      	movs	r3, #1
 8003876:	4a31      	ldr	r2, [pc, #196]	; (800393c <main+0x79c>)
 8003878:	2702      	movs	r7, #2
 800387a:	8013      	strh	r3, [r2, #0]
 800387c:	e746      	b.n	800370c <main+0x56c>
 800387e:	200c      	movs	r0, #12
 8003880:	492b      	ldr	r1, [pc, #172]	; (8003930 <main+0x790>)
 8003882:	4a2e      	ldr	r2, [pc, #184]	; (800393c <main+0x79c>)
 8003884:	3301      	adds	r3, #1
 8003886:	f891 a00a 	ldrb.w	sl, [r1, #10]
 800388a:	b29b      	uxth	r3, r3
 800388c:	8013      	strh	r3, [r2, #0]
 800388e:	4a2d      	ldr	r2, [pc, #180]	; (8003944 <main+0x7a4>)
 8003890:	fa1f f78a 	uxth.w	r7, sl
 8003894:	8017      	strh	r7, [r2, #0]
 8003896:	4a27      	ldr	r2, [pc, #156]	; (8003934 <main+0x794>)
 8003898:	7ac9      	ldrb	r1, [r1, #11]
 800389a:	8010      	strh	r0, [r2, #0]
 800389c:	482a      	ldr	r0, [pc, #168]	; (8003948 <main+0x7a8>)
 800389e:	2b0a      	cmp	r3, #10
 80038a0:	8001      	strh	r1, [r0, #0]
 80038a2:	d192      	bne.n	80037ca <main+0x62a>
 80038a4:	2f63      	cmp	r7, #99	; 0x63
 80038a6:	d890      	bhi.n	80037ca <main+0x62a>
 80038a8:	2964      	cmp	r1, #100	; 0x64
 80038aa:	d88e      	bhi.n	80037ca <main+0x62a>
 80038ac:	4920      	ldr	r1, [pc, #128]	; (8003930 <main+0x790>)
 80038ae:	f04f 0c01 	mov.w	ip, #1
 80038b2:	4608      	mov	r0, r1
 80038b4:	4602      	mov	r2, r0
 80038b6:	f04f 0b15 	mov.w	fp, #21
 80038ba:	7b8b      	ldrb	r3, [r1, #14]
 80038bc:	f890 e00d 	ldrb.w	lr, [r0, #13]
 80038c0:	4829      	ldr	r0, [pc, #164]	; (8003968 <main+0x7c8>)
 80038c2:	041b      	lsls	r3, r3, #16
 80038c4:	f820 701a 	strh.w	r7, [r0, sl, lsl #1]
 80038c8:	7b17      	ldrb	r7, [r2, #12]
 80038ca:	481d      	ldr	r0, [pc, #116]	; (8003940 <main+0x7a0>)
 80038cc:	7cc9      	ldrb	r1, [r1, #19]
 80038ce:	eb03 230e 	add.w	r3, r3, lr, lsl #8
 80038d2:	443b      	add	r3, r7
 80038d4:	7c97      	ldrb	r7, [r2, #18]
 80038d6:	f8a0 c000 	strh.w	ip, [r0]
 80038da:	0409      	lsls	r1, r1, #16
 80038dc:	f892 c00f 	ldrb.w	ip, [r2, #15]
 80038e0:	eb01 2107 	add.w	r1, r1, r7, lsl #8
 80038e4:	4821      	ldr	r0, [pc, #132]	; (800396c <main+0x7cc>)
 80038e6:	7c57      	ldrb	r7, [r2, #17]
 80038e8:	eb03 630c 	add.w	r3, r3, ip, lsl #24
 80038ec:	f840 302a 	str.w	r3, [r0, sl, lsl #2]
 80038f0:	19cb      	adds	r3, r1, r7
 80038f2:	7d11      	ldrb	r1, [r2, #20]
 80038f4:	4617      	mov	r7, r2
 80038f6:	4a0f      	ldr	r2, [pc, #60]	; (8003934 <main+0x794>)
 80038f8:	481d      	ldr	r0, [pc, #116]	; (8003970 <main+0x7d0>)
 80038fa:	f8a2 b000 	strh.w	fp, [r2]
 80038fe:	4a1d      	ldr	r2, [pc, #116]	; (8003974 <main+0x7d4>)
 8003900:	eb03 6301 	add.w	r3, r3, r1, lsl #24
 8003904:	f842 302a 	str.w	r3, [r2, sl, lsl #2]
 8003908:	4603      	mov	r3, r0
 800390a:	7c3f      	ldrb	r7, [r7, #16]
 800390c:	4a1a      	ldr	r2, [pc, #104]	; (8003978 <main+0x7d8>)
 800390e:	6841      	ldr	r1, [r0, #4]
 8003910:	f822 701a 	strh.w	r7, [r2, sl, lsl #1]
 8003914:	6800      	ldr	r0, [r0, #0]
 8003916:	4f0d      	ldr	r7, [pc, #52]	; (800394c <main+0x7ac>)
 8003918:	7a1a      	ldrb	r2, [r3, #8]
 800391a:	7a5b      	ldrb	r3, [r3, #9]
 800391c:	6079      	str	r1, [r7, #4]
 800391e:	6038      	str	r0, [r7, #0]
 8003920:	723a      	strb	r2, [r7, #8]
 8003922:	727b      	strb	r3, [r7, #9]
 8003924:	e75b      	b.n	80037de <main+0x63e>
 8003926:	bf00      	nop
 8003928:	2000010c 	.word	0x2000010c
 800392c:	200001bd 	.word	0x200001bd
 8003930:	200003b8 	.word	0x200003b8
 8003934:	200001c2 	.word	0x200001c2
 8003938:	200003b9 	.word	0x200003b9
 800393c:	200001c4 	.word	0x200001c4
 8003940:	200004c0 	.word	0x200004c0
 8003944:	200001be 	.word	0x200001be
 8003948:	20000698 	.word	0x20000698
 800394c:	20000658 	.word	0x20000658
 8003950:	200000f4 	.word	0x200000f4
 8003954:	200003c2 	.word	0x200003c2
 8003958:	20000662 	.word	0x20000662
 800395c:	200003f2 	.word	0x200003f2
 8003960:	200003b4 	.word	0x200003b4
 8003964:	431bde83 	.word	0x431bde83
 8003968:	2000069c 	.word	0x2000069c
 800396c:	200004c4 	.word	0x200004c4
 8003970:	20000100 	.word	0x20000100
 8003974:	20000224 	.word	0x20000224
 8003978:	200003f8 	.word	0x200003f8
 800397c:	e0001000 	.word	0xe0001000
 8003980:	2300      	movs	r3, #0
 8003982:	4a14      	ldr	r2, [pc, #80]	; (80039d4 <main+0x834>)
 8003984:	8013      	strh	r3, [r2, #0]
 8003986:	b307      	cbz	r7, 80039ca <main+0x82a>
 8003988:	469a      	mov	sl, r3
 800398a:	4618      	mov	r0, r3
 800398c:	461a      	mov	r2, r3
 800398e:	f8df c048 	ldr.w	ip, [pc, #72]	; 80039d8 <main+0x838>
 8003992:	f83c eb02 	ldrh.w	lr, [ip], #2
 8003996:	3301      	adds	r3, #1
 8003998:	4572      	cmp	r2, lr
 800399a:	b29a      	uxth	r2, r3
 800399c:	d103      	bne.n	80039a6 <main+0x806>
 800399e:	f04f 0a01 	mov.w	sl, #1
 80039a2:	4450      	add	r0, sl
 80039a4:	b280      	uxth	r0, r0
 80039a6:	4297      	cmp	r7, r2
 80039a8:	d8f3      	bhi.n	8003992 <main+0x7f2>
 80039aa:	f1ba 0f00 	cmp.w	sl, #0
 80039ae:	f43f af45 	beq.w	800383c <main+0x69c>
 80039b2:	4b08      	ldr	r3, [pc, #32]	; (80039d4 <main+0x834>)
 80039b4:	4287      	cmp	r7, r0
 80039b6:	8018      	strh	r0, [r3, #0]
 80039b8:	f47f af40 	bne.w	800383c <main+0x69c>
 80039bc:	b28a      	uxth	r2, r1
 80039be:	3201      	adds	r2, #1
 80039c0:	0052      	lsls	r2, r2, #1
 80039c2:	2100      	movs	r1, #0
 80039c4:	4804      	ldr	r0, [pc, #16]	; (80039d8 <main+0x838>)
 80039c6:	f000 fb46 	bl	8004056 <memset>
 80039ca:	2301      	movs	r3, #1
 80039cc:	4a03      	ldr	r2, [pc, #12]	; (80039dc <main+0x83c>)
 80039ce:	8013      	strh	r3, [r2, #0]
 80039d0:	e487      	b.n	80032e2 <main+0x142>
 80039d2:	bf00      	nop
 80039d4:	200001c0 	.word	0x200001c0
 80039d8:	2000069c 	.word	0x2000069c
 80039dc:	200003b4 	.word	0x200003b4

080039e0 <Error_Handler>:
 80039e0:	4770      	bx	lr
 80039e2:	bf00      	nop

080039e4 <HAL_MspInit>:
 80039e4:	4b0d      	ldr	r3, [pc, #52]	; (8003a1c <HAL_MspInit+0x38>)
 80039e6:	b082      	sub	sp, #8
 80039e8:	699a      	ldr	r2, [r3, #24]
 80039ea:	490d      	ldr	r1, [pc, #52]	; (8003a20 <HAL_MspInit+0x3c>)
 80039ec:	f042 0201 	orr.w	r2, r2, #1
 80039f0:	619a      	str	r2, [r3, #24]
 80039f2:	699a      	ldr	r2, [r3, #24]
 80039f4:	f002 0201 	and.w	r2, r2, #1
 80039f8:	9200      	str	r2, [sp, #0]
 80039fa:	9a00      	ldr	r2, [sp, #0]
 80039fc:	69da      	ldr	r2, [r3, #28]
 80039fe:	f042 5280 	orr.w	r2, r2, #268435456	; 0x10000000
 8003a02:	61da      	str	r2, [r3, #28]
 8003a04:	69db      	ldr	r3, [r3, #28]
 8003a06:	f003 5380 	and.w	r3, r3, #268435456	; 0x10000000
 8003a0a:	9301      	str	r3, [sp, #4]
 8003a0c:	9b01      	ldr	r3, [sp, #4]
 8003a0e:	684b      	ldr	r3, [r1, #4]
 8003a10:	f023 63e0 	bic.w	r3, r3, #117440512	; 0x7000000
 8003a14:	604b      	str	r3, [r1, #4]
 8003a16:	b002      	add	sp, #8
 8003a18:	4770      	bx	lr
 8003a1a:	bf00      	nop
 8003a1c:	40021000 	.word	0x40021000
 8003a20:	40010000 	.word	0x40010000

08003a24 <NMI_Handler>:
 8003a24:	4770      	bx	lr
 8003a26:	bf00      	nop

08003a28 <HardFault_Handler>:
 8003a28:	e7fe      	b.n	8003a28 <HardFault_Handler>
 8003a2a:	bf00      	nop

08003a2c <MemManage_Handler>:
 8003a2c:	e7fe      	b.n	8003a2c <MemManage_Handler>
 8003a2e:	bf00      	nop

08003a30 <BusFault_Handler>:
 8003a30:	e7fe      	b.n	8003a30 <BusFault_Handler>
 8003a32:	bf00      	nop

08003a34 <UsageFault_Handler>:
 8003a34:	e7fe      	b.n	8003a34 <UsageFault_Handler>
 8003a36:	bf00      	nop

08003a38 <SVC_Handler>:
 8003a38:	4770      	bx	lr
 8003a3a:	bf00      	nop

08003a3c <DebugMon_Handler>:
 8003a3c:	4770      	bx	lr
 8003a3e:	bf00      	nop

08003a40 <PendSV_Handler>:
 8003a40:	4770      	bx	lr
 8003a42:	bf00      	nop

08003a44 <SysTick_Handler>:
 8003a44:	f7fc bfa8 	b.w	8000998 <HAL_IncTick>

08003a48 <USB_LP_CAN1_RX0_IRQHandler>:
 8003a48:	4801      	ldr	r0, [pc, #4]	; (8003a50 <USB_LP_CAN1_RX0_IRQHandler+0x8>)
 8003a4a:	f7fd b9cb 	b.w	8000de4 <HAL_PCD_IRQHandler>
 8003a4e:	bf00      	nop
 8003a50:	20000a28 	.word	0x20000a28

08003a54 <SystemInit>:
 8003a54:	b430      	push	{r4, r5}
 8003a56:	f44f 051f 	mov.w	r5, #10420224	; 0x9f0000
 8003a5a:	f04f 6400 	mov.w	r4, #134217728	; 0x8000000
 8003a5e:	4b0e      	ldr	r3, [pc, #56]	; (8003a98 <SystemInit+0x44>)
 8003a60:	4a0e      	ldr	r2, [pc, #56]	; (8003a9c <SystemInit+0x48>)
 8003a62:	6819      	ldr	r1, [r3, #0]
 8003a64:	480e      	ldr	r0, [pc, #56]	; (8003aa0 <SystemInit+0x4c>)
 8003a66:	f041 0101 	orr.w	r1, r1, #1
 8003a6a:	6019      	str	r1, [r3, #0]
 8003a6c:	6859      	ldr	r1, [r3, #4]
 8003a6e:	400a      	ands	r2, r1
 8003a70:	605a      	str	r2, [r3, #4]
 8003a72:	681a      	ldr	r2, [r3, #0]
 8003a74:	f022 7284 	bic.w	r2, r2, #17301504	; 0x1080000
 8003a78:	f422 3280 	bic.w	r2, r2, #65536	; 0x10000
 8003a7c:	601a      	str	r2, [r3, #0]
 8003a7e:	681a      	ldr	r2, [r3, #0]
 8003a80:	f422 2280 	bic.w	r2, r2, #262144	; 0x40000
 8003a84:	601a      	str	r2, [r3, #0]
 8003a86:	685a      	ldr	r2, [r3, #4]
 8003a88:	f422 02fe 	bic.w	r2, r2, #8323072	; 0x7f0000
 8003a8c:	605a      	str	r2, [r3, #4]
 8003a8e:	609d      	str	r5, [r3, #8]
 8003a90:	6084      	str	r4, [r0, #8]
 8003a92:	bc30      	pop	{r4, r5}
 8003a94:	4770      	bx	lr
 8003a96:	bf00      	nop
 8003a98:	40021000 	.word	0x40021000
 8003a9c:	f8ff0000 	.word	0xf8ff0000
 8003aa0:	e000ed00 	.word	0xe000ed00

08003aa4 <MX_USB_DEVICE_Init>:
 8003aa4:	b508      	push	{r3, lr}
 8003aa6:	2200      	movs	r2, #0
 8003aa8:	4910      	ldr	r1, [pc, #64]	; (8003aec <MX_USB_DEVICE_Init+0x48>)
 8003aaa:	4811      	ldr	r0, [pc, #68]	; (8003af0 <MX_USB_DEVICE_Init+0x4c>)
 8003aac:	f7fe fe44 	bl	8002738 <USBD_Init>
 8003ab0:	b9c0      	cbnz	r0, 8003ae4 <MX_USB_DEVICE_Init+0x40>
 8003ab2:	4910      	ldr	r1, [pc, #64]	; (8003af4 <MX_USB_DEVICE_Init+0x50>)
 8003ab4:	480e      	ldr	r0, [pc, #56]	; (8003af0 <MX_USB_DEVICE_Init+0x4c>)
 8003ab6:	f7fe fe55 	bl	8002764 <USBD_RegisterClass>
 8003aba:	b980      	cbnz	r0, 8003ade <MX_USB_DEVICE_Init+0x3a>
 8003abc:	490e      	ldr	r1, [pc, #56]	; (8003af8 <MX_USB_DEVICE_Init+0x54>)
 8003abe:	480c      	ldr	r0, [pc, #48]	; (8003af0 <MX_USB_DEVICE_Init+0x4c>)
 8003ac0:	f7fe fe32 	bl	8002728 <USBD_CUSTOM_HID_RegisterInterface>
 8003ac4:	b940      	cbnz	r0, 8003ad8 <MX_USB_DEVICE_Init+0x34>
 8003ac6:	480a      	ldr	r0, [pc, #40]	; (8003af0 <MX_USB_DEVICE_Init+0x4c>)
 8003ac8:	f7fe fe54 	bl	8002774 <USBD_Start>
 8003acc:	b900      	cbnz	r0, 8003ad0 <MX_USB_DEVICE_Init+0x2c>
 8003ace:	bd08      	pop	{r3, pc}
 8003ad0:	e8bd 4008 	ldmia.w	sp!, {r3, lr}
 8003ad4:	f7ff bf84 	b.w	80039e0 <Error_Handler>
 8003ad8:	f7ff ff82 	bl	80039e0 <Error_Handler>
 8003adc:	e7f3      	b.n	8003ac6 <MX_USB_DEVICE_Init+0x22>
 8003ade:	f7ff ff7f 	bl	80039e0 <Error_Handler>
 8003ae2:	e7eb      	b.n	8003abc <MX_USB_DEVICE_Init+0x18>
 8003ae4:	f7ff ff7c 	bl	80039e0 <Error_Handler>
 8003ae8:	e7e3      	b.n	8003ab2 <MX_USB_DEVICE_Init+0xe>
 8003aea:	bf00      	nop
 8003aec:	20000150 	.word	0x20000150
 8003af0:	20000764 	.word	0x20000764
 8003af4:	20000008 	.word	0x20000008
 8003af8:	20000140 	.word	0x20000140

08003afc <HAL_PCD_MspInit>:
 8003afc:	6802      	ldr	r2, [r0, #0]
 8003afe:	4b0e      	ldr	r3, [pc, #56]	; (8003b38 <HAL_PCD_MspInit+0x3c>)
 8003b00:	429a      	cmp	r2, r3
 8003b02:	d000      	beq.n	8003b06 <HAL_PCD_MspInit+0xa>
 8003b04:	4770      	bx	lr
 8003b06:	2200      	movs	r2, #0
 8003b08:	f503 33da 	add.w	r3, r3, #111616	; 0x1b400
 8003b0c:	b510      	push	{r4, lr}
 8003b0e:	69dc      	ldr	r4, [r3, #28]
 8003b10:	b082      	sub	sp, #8
 8003b12:	f444 0400 	orr.w	r4, r4, #8388608	; 0x800000
 8003b16:	61dc      	str	r4, [r3, #28]
 8003b18:	69db      	ldr	r3, [r3, #28]
 8003b1a:	4611      	mov	r1, r2
 8003b1c:	f403 0300 	and.w	r3, r3, #8388608	; 0x800000
 8003b20:	9301      	str	r3, [sp, #4]
 8003b22:	2014      	movs	r0, #20
 8003b24:	9b01      	ldr	r3, [sp, #4]
 8003b26:	f7fc ff6d 	bl	8000a04 <HAL_NVIC_SetPriority>
 8003b2a:	2014      	movs	r0, #20
 8003b2c:	b002      	add	sp, #8
 8003b2e:	e8bd 4010 	ldmia.w	sp!, {r4, lr}
 8003b32:	f7fc bf9d 	b.w	8000a70 <HAL_NVIC_EnableIRQ>
 8003b36:	bf00      	nop
 8003b38:	40005c00 	.word	0x40005c00

08003b3c <HAL_PCD_SetupStageCallback>:
 8003b3c:	f500 710c 	add.w	r1, r0, #560	; 0x230
 8003b40:	f8d0 0268 	ldr.w	r0, [r0, #616]	; 0x268
 8003b44:	f7fe be2e 	b.w	80027a4 <USBD_LL_SetupStage>

08003b48 <HAL_PCD_DataOutStageCallback>:
 8003b48:	eb00 1341 	add.w	r3, r0, r1, lsl #5
 8003b4c:	f8d3 213c 	ldr.w	r2, [r3, #316]	; 0x13c
 8003b50:	f8d0 0268 	ldr.w	r0, [r0, #616]	; 0x268
 8003b54:	f7fe be56 	b.w	8002804 <USBD_LL_DataOutStage>

08003b58 <HAL_PCD_DataInStageCallback>:
 8003b58:	eb00 1341 	add.w	r3, r0, r1, lsl #5
 8003b5c:	6bda      	ldr	r2, [r3, #60]	; 0x3c
 8003b5e:	f8d0 0268 	ldr.w	r0, [r0, #616]	; 0x268
 8003b62:	f7fe be8f 	b.w	8002884 <USBD_LL_DataInStage>
 8003b66:	bf00      	nop

08003b68 <HAL_PCD_SOFCallback>:
 8003b68:	f8d0 0268 	ldr.w	r0, [r0, #616]	; 0x268
 8003b6c:	f7fe bf2a 	b.w	80029c4 <USBD_LL_SOF>

08003b70 <HAL_PCD_ResetCallback>:
 8003b70:	6883      	ldr	r3, [r0, #8]
 8003b72:	b510      	push	{r4, lr}
 8003b74:	2b02      	cmp	r3, #2
 8003b76:	4604      	mov	r4, r0
 8003b78:	d001      	beq.n	8003b7e <HAL_PCD_ResetCallback+0xe>
 8003b7a:	f7ff ff31 	bl	80039e0 <Error_Handler>
 8003b7e:	f8d4 0268 	ldr.w	r0, [r4, #616]	; 0x268
 8003b82:	2101      	movs	r1, #1
 8003b84:	f7fe ff06 	bl	8002994 <USBD_LL_SetSpeed>
 8003b88:	f8d4 0268 	ldr.w	r0, [r4, #616]	; 0x268
 8003b8c:	e8bd 4010 	ldmia.w	sp!, {r4, lr}
 8003b90:	f7fe bed8 	b.w	8002944 <USBD_LL_Reset>

08003b94 <HAL_PCD_SuspendCallback>:
 8003b94:	b510      	push	{r4, lr}
 8003b96:	4604      	mov	r4, r0
 8003b98:	f8d0 0268 	ldr.w	r0, [r0, #616]	; 0x268
 8003b9c:	f7fe fefe 	bl	800299c <USBD_LL_Suspend>
 8003ba0:	69a3      	ldr	r3, [r4, #24]
 8003ba2:	b123      	cbz	r3, 8003bae <HAL_PCD_SuspendCallback+0x1a>
 8003ba4:	4a02      	ldr	r2, [pc, #8]	; (8003bb0 <HAL_PCD_SuspendCallback+0x1c>)
 8003ba6:	6913      	ldr	r3, [r2, #16]
 8003ba8:	f043 0306 	orr.w	r3, r3, #6
 8003bac:	6113      	str	r3, [r2, #16]
 8003bae:	bd10      	pop	{r4, pc}
 8003bb0:	e000ed00 	.word	0xe000ed00

08003bb4 <HAL_PCD_ResumeCallback>:
 8003bb4:	f8d0 0268 	ldr.w	r0, [r0, #616]	; 0x268
 8003bb8:	f7fe befa 	b.w	80029b0 <USBD_LL_Resume>

08003bbc <USBD_LL_Init>:
 8003bbc:	b538      	push	{r3, r4, r5, lr}
 8003bbe:	4604      	mov	r4, r0
 8003bc0:	2200      	movs	r2, #0
 8003bc2:	2508      	movs	r5, #8
 8003bc4:	2102      	movs	r1, #2
 8003bc6:	4b18      	ldr	r3, [pc, #96]	; (8003c28 <USBD_LL_Init+0x6c>)
 8003bc8:	4818      	ldr	r0, [pc, #96]	; (8003c2c <USBD_LL_Init+0x70>)
 8003bca:	f8c4 32c0 	str.w	r3, [r4, #704]	; 0x2c0
 8003bce:	6018      	str	r0, [r3, #0]
 8003bd0:	4618      	mov	r0, r3
 8003bd2:	f8c3 4268 	str.w	r4, [r3, #616]	; 0x268
 8003bd6:	e9c3 5101 	strd	r5, r1, [r3, #4]
 8003bda:	e9c3 2206 	strd	r2, r2, [r3, #24]
 8003bde:	621a      	str	r2, [r3, #32]
 8003be0:	f7fd f86a 	bl	8000cb8 <HAL_PCD_Init>
 8003be4:	b108      	cbz	r0, 8003bea <USBD_LL_Init+0x2e>
 8003be6:	f7ff fefb 	bl	80039e0 <Error_Handler>
 8003bea:	2200      	movs	r2, #0
 8003bec:	2318      	movs	r3, #24
 8003bee:	4611      	mov	r1, r2
 8003bf0:	f8d4 02c0 	ldr.w	r0, [r4, #704]	; 0x2c0
 8003bf4:	f7fd fc78 	bl	80014e8 <HAL_PCDEx_PMAConfig>
 8003bf8:	2358      	movs	r3, #88	; 0x58
 8003bfa:	2200      	movs	r2, #0
 8003bfc:	2180      	movs	r1, #128	; 0x80
 8003bfe:	f8d4 02c0 	ldr.w	r0, [r4, #704]	; 0x2c0
 8003c02:	f7fd fc71 	bl	80014e8 <HAL_PCDEx_PMAConfig>
 8003c06:	2398      	movs	r3, #152	; 0x98
 8003c08:	2200      	movs	r2, #0
 8003c0a:	2181      	movs	r1, #129	; 0x81
 8003c0c:	f8d4 02c0 	ldr.w	r0, [r4, #704]	; 0x2c0
 8003c10:	f7fd fc6a 	bl	80014e8 <HAL_PCDEx_PMAConfig>
 8003c14:	f8d4 02c0 	ldr.w	r0, [r4, #704]	; 0x2c0
 8003c18:	23d8      	movs	r3, #216	; 0xd8
 8003c1a:	2200      	movs	r2, #0
 8003c1c:	2101      	movs	r1, #1
 8003c1e:	f7fd fc63 	bl	80014e8 <HAL_PCDEx_PMAConfig>
 8003c22:	2000      	movs	r0, #0
 8003c24:	bd38      	pop	{r3, r4, r5, pc}
 8003c26:	bf00      	nop
 8003c28:	20000a28 	.word	0x20000a28
 8003c2c:	40005c00 	.word	0x40005c00

08003c30 <USBD_LL_Start>:
 8003c30:	b508      	push	{r3, lr}
 8003c32:	f8d0 02c0 	ldr.w	r0, [r0, #704]	; 0x2c0
 8003c36:	f7fd f8bd 	bl	8000db4 <HAL_PCD_Start>
 8003c3a:	2803      	cmp	r0, #3
 8003c3c:	bf96      	itet	ls
 8003c3e:	4b02      	ldrls	r3, [pc, #8]	; (8003c48 <USBD_LL_Start+0x18>)
 8003c40:	2002      	movhi	r0, #2
 8003c42:	5c18      	ldrbls	r0, [r3, r0]
 8003c44:	bd08      	pop	{r3, pc}
 8003c46:	bf00      	nop
 8003c48:	080040a0 	.word	0x080040a0

08003c4c <USBD_LL_OpenEP>:
 8003c4c:	b510      	push	{r4, lr}
 8003c4e:	461c      	mov	r4, r3
 8003c50:	f8d0 02c0 	ldr.w	r0, [r0, #704]	; 0x2c0
 8003c54:	4613      	mov	r3, r2
 8003c56:	4622      	mov	r2, r4
 8003c58:	f7fd fb46 	bl	80012e8 <HAL_PCD_EP_Open>
 8003c5c:	2803      	cmp	r0, #3
 8003c5e:	bf96      	itet	ls
 8003c60:	4b01      	ldrls	r3, [pc, #4]	; (8003c68 <USBD_LL_OpenEP+0x1c>)
 8003c62:	2002      	movhi	r0, #2
 8003c64:	5c18      	ldrbls	r0, [r3, r0]
 8003c66:	bd10      	pop	{r4, pc}
 8003c68:	080040a0 	.word	0x080040a0

08003c6c <USBD_LL_CloseEP>:
 8003c6c:	b508      	push	{r3, lr}
 8003c6e:	f8d0 02c0 	ldr.w	r0, [r0, #704]	; 0x2c0
 8003c72:	f7fd fb6b 	bl	800134c <HAL_PCD_EP_Close>
 8003c76:	2803      	cmp	r0, #3
 8003c78:	bf96      	itet	ls
 8003c7a:	4b02      	ldrls	r3, [pc, #8]	; (8003c84 <USBD_LL_CloseEP+0x18>)
 8003c7c:	2002      	movhi	r0, #2
 8003c7e:	5c18      	ldrbls	r0, [r3, r0]
 8003c80:	bd08      	pop	{r3, pc}
 8003c82:	bf00      	nop
 8003c84:	080040a0 	.word	0x080040a0

08003c88 <USBD_LL_StallEP>:
 8003c88:	b508      	push	{r3, lr}
 8003c8a:	f8d0 02c0 	ldr.w	r0, [r0, #704]	; 0x2c0
 8003c8e:	f7fd fbb7 	bl	8001400 <HAL_PCD_EP_SetStall>
 8003c92:	2803      	cmp	r0, #3
 8003c94:	bf96      	itet	ls
 8003c96:	4b02      	ldrls	r3, [pc, #8]	; (8003ca0 <USBD_LL_StallEP+0x18>)
 8003c98:	2002      	movhi	r0, #2
 8003c9a:	5c18      	ldrbls	r0, [r3, r0]
 8003c9c:	bd08      	pop	{r3, pc}
 8003c9e:	bf00      	nop
 8003ca0:	080040a0 	.word	0x080040a0

08003ca4 <USBD_LL_ClearStallEP>:
 8003ca4:	b508      	push	{r3, lr}
 8003ca6:	f8d0 02c0 	ldr.w	r0, [r0, #704]	; 0x2c0
 8003caa:	f7fd fbe5 	bl	8001478 <HAL_PCD_EP_ClrStall>
 8003cae:	2803      	cmp	r0, #3
 8003cb0:	bf96      	itet	ls
 8003cb2:	4b02      	ldrls	r3, [pc, #8]	; (8003cbc <USBD_LL_ClearStallEP+0x18>)
 8003cb4:	2002      	movhi	r0, #2
 8003cb6:	5c18      	ldrbls	r0, [r3, r0]
 8003cb8:	bd08      	pop	{r3, pc}
 8003cba:	bf00      	nop
 8003cbc:	080040a0 	.word	0x080040a0

08003cc0 <USBD_LL_IsStallEP>:
 8003cc0:	060a      	lsls	r2, r1, #24
 8003cc2:	f8d0 32c0 	ldr.w	r3, [r0, #704]	; 0x2c0
 8003cc6:	d404      	bmi.n	8003cd2 <USBD_LL_IsStallEP+0x12>
 8003cc8:	eb03 1341 	add.w	r3, r3, r1, lsl #5
 8003ccc:	f893 012a 	ldrb.w	r0, [r3, #298]	; 0x12a
 8003cd0:	4770      	bx	lr
 8003cd2:	f001 017f 	and.w	r1, r1, #127	; 0x7f
 8003cd6:	eb03 1341 	add.w	r3, r3, r1, lsl #5
 8003cda:	f893 002a 	ldrb.w	r0, [r3, #42]	; 0x2a
 8003cde:	4770      	bx	lr

08003ce0 <USBD_LL_SetUSBAddress>:
 8003ce0:	b508      	push	{r3, lr}
 8003ce2:	f8d0 02c0 	ldr.w	r0, [r0, #704]	; 0x2c0
 8003ce6:	f7fd faeb 	bl	80012c0 <HAL_PCD_SetAddress>
 8003cea:	2803      	cmp	r0, #3
 8003cec:	bf96      	itet	ls
 8003cee:	4b02      	ldrls	r3, [pc, #8]	; (8003cf8 <USBD_LL_SetUSBAddress+0x18>)
 8003cf0:	2002      	movhi	r0, #2
 8003cf2:	5c18      	ldrbls	r0, [r3, r0]
 8003cf4:	bd08      	pop	{r3, pc}
 8003cf6:	bf00      	nop
 8003cf8:	080040a0 	.word	0x080040a0

08003cfc <USBD_LL_Transmit>:
 8003cfc:	b508      	push	{r3, lr}
 8003cfe:	f8d0 02c0 	ldr.w	r0, [r0, #704]	; 0x2c0
 8003d02:	f7fd fb67 	bl	80013d4 <HAL_PCD_EP_Transmit>
 8003d06:	2803      	cmp	r0, #3
 8003d08:	bf96      	itet	ls
 8003d0a:	4b02      	ldrls	r3, [pc, #8]	; (8003d14 <USBD_LL_Transmit+0x18>)
 8003d0c:	2002      	movhi	r0, #2
 8003d0e:	5c18      	ldrbls	r0, [r3, r0]
 8003d10:	bd08      	pop	{r3, pc}
 8003d12:	bf00      	nop
 8003d14:	080040a0 	.word	0x080040a0

08003d18 <USBD_LL_PrepareReceive>:
 8003d18:	b508      	push	{r3, lr}
 8003d1a:	f8d0 02c0 	ldr.w	r0, [r0, #704]	; 0x2c0
 8003d1e:	f7fd fb41 	bl	80013a4 <HAL_PCD_EP_Receive>
 8003d22:	2803      	cmp	r0, #3
 8003d24:	bf96      	itet	ls
 8003d26:	4b02      	ldrls	r3, [pc, #8]	; (8003d30 <USBD_LL_PrepareReceive+0x18>)
 8003d28:	2002      	movhi	r0, #2
 8003d2a:	5c18      	ldrbls	r0, [r3, r0]
 8003d2c:	bd08      	pop	{r3, pc}
 8003d2e:	bf00      	nop
 8003d30:	080040a0 	.word	0x080040a0

08003d34 <USBD_static_malloc>:
 8003d34:	4800      	ldr	r0, [pc, #0]	; (8003d38 <USBD_static_malloc+0x4>)
 8003d36:	4770      	bx	lr
 8003d38:	200001c8 	.word	0x200001c8

08003d3c <USBD_static_free>:
 8003d3c:	4770      	bx	lr
 8003d3e:	bf00      	nop

08003d40 <HAL_PCDEx_SetConnectionState>:
 8003d40:	4770      	bx	lr
 8003d42:	bf00      	nop

08003d44 <CUSTOM_HID_Init_FS>:
 8003d44:	2000      	movs	r0, #0
 8003d46:	4770      	bx	lr

08003d48 <CUSTOM_HID_OutEvent_FS>:
 8003d48:	b430      	push	{r4, r5}
 8003d4a:	f44f 6480 	mov.w	r4, #1024	; 0x400
 8003d4e:	4b20      	ldr	r3, [pc, #128]	; (8003dd0 <CUSTOM_HID_OutEvent_FS+0x88>)
 8003d50:	4920      	ldr	r1, [pc, #128]	; (8003dd4 <CUSTOM_HID_OutEvent_FS+0x8c>)
 8003d52:	f8d3 32b8 	ldr.w	r3, [r3, #696]	; 0x2b8
 8003d56:	4820      	ldr	r0, [pc, #128]	; (8003dd8 <CUSTOM_HID_OutEvent_FS+0x90>)
 8003d58:	1d1a      	adds	r2, r3, #4
 8003d5a:	428a      	cmp	r2, r1
 8003d5c:	6104      	str	r4, [r0, #16]
 8003d5e:	d902      	bls.n	8003d66 <CUSTOM_HID_OutEvent_FS+0x1e>
 8003d60:	1d0a      	adds	r2, r1, #4
 8003d62:	4293      	cmp	r3, r2
 8003d64:	d329      	bcc.n	8003dba <CUSTOM_HID_OutEvent_FS+0x72>
 8003d66:	e9d3 4000 	ldrd	r4, r0, [r3]
 8003d6a:	e9d3 2502 	ldrd	r2, r5, [r3, #8]
 8003d6e:	600c      	str	r4, [r1, #0]
 8003d70:	6048      	str	r0, [r1, #4]
 8003d72:	691c      	ldr	r4, [r3, #16]
 8003d74:	6958      	ldr	r0, [r3, #20]
 8003d76:	608a      	str	r2, [r1, #8]
 8003d78:	60cd      	str	r5, [r1, #12]
 8003d7a:	699a      	ldr	r2, [r3, #24]
 8003d7c:	69dd      	ldr	r5, [r3, #28]
 8003d7e:	610c      	str	r4, [r1, #16]
 8003d80:	6148      	str	r0, [r1, #20]
 8003d82:	6a1c      	ldr	r4, [r3, #32]
 8003d84:	6a58      	ldr	r0, [r3, #36]	; 0x24
 8003d86:	618a      	str	r2, [r1, #24]
 8003d88:	61cd      	str	r5, [r1, #28]
 8003d8a:	6a9a      	ldr	r2, [r3, #40]	; 0x28
 8003d8c:	6add      	ldr	r5, [r3, #44]	; 0x2c
 8003d8e:	620c      	str	r4, [r1, #32]
 8003d90:	6248      	str	r0, [r1, #36]	; 0x24
 8003d92:	6b1c      	ldr	r4, [r3, #48]	; 0x30
 8003d94:	6b58      	ldr	r0, [r3, #52]	; 0x34
 8003d96:	628a      	str	r2, [r1, #40]	; 0x28
 8003d98:	62cd      	str	r5, [r1, #44]	; 0x2c
 8003d9a:	e9d3 230e 	ldrd	r2, r3, [r3, #56]	; 0x38
 8003d9e:	630c      	str	r4, [r1, #48]	; 0x30
 8003da0:	6348      	str	r0, [r1, #52]	; 0x34
 8003da2:	638a      	str	r2, [r1, #56]	; 0x38
 8003da4:	63cb      	str	r3, [r1, #60]	; 0x3c
 8003da6:	2001      	movs	r0, #1
 8003da8:	f44f 6280 	mov.w	r2, #1024	; 0x400
 8003dac:	490b      	ldr	r1, [pc, #44]	; (8003ddc <CUSTOM_HID_OutEvent_FS+0x94>)
 8003dae:	4b0a      	ldr	r3, [pc, #40]	; (8003dd8 <CUSTOM_HID_OutEvent_FS+0x90>)
 8003db0:	7008      	strb	r0, [r1, #0]
 8003db2:	bc30      	pop	{r4, r5}
 8003db4:	2000      	movs	r0, #0
 8003db6:	615a      	str	r2, [r3, #20]
 8003db8:	4770      	bx	lr
 8003dba:	1e4a      	subs	r2, r1, #1
 8003dbc:	3b01      	subs	r3, #1
 8003dbe:	313f      	adds	r1, #63	; 0x3f
 8003dc0:	f813 0f01 	ldrb.w	r0, [r3, #1]!
 8003dc4:	f802 0f01 	strb.w	r0, [r2, #1]!
 8003dc8:	4291      	cmp	r1, r2
 8003dca:	d1f9      	bne.n	8003dc0 <CUSTOM_HID_OutEvent_FS+0x78>
 8003dcc:	e7eb      	b.n	8003da6 <CUSTOM_HID_OutEvent_FS+0x5e>
 8003dce:	bf00      	nop
 8003dd0:	20000764 	.word	0x20000764
 8003dd4:	200003b8 	.word	0x200003b8
 8003dd8:	40010800 	.word	0x40010800
 8003ddc:	200001bd 	.word	0x200001bd

08003de0 <CUSTOM_HID_DeInit_FS>:
 8003de0:	2000      	movs	r0, #0
 8003de2:	4770      	bx	lr

08003de4 <USBD_FS_DeviceDescriptor>:
 8003de4:	2312      	movs	r3, #18
 8003de6:	4801      	ldr	r0, [pc, #4]	; (8003dec <USBD_FS_DeviceDescriptor+0x8>)
 8003de8:	800b      	strh	r3, [r1, #0]
 8003dea:	4770      	bx	lr
 8003dec:	2000016c 	.word	0x2000016c

08003df0 <USBD_FS_LangIDStrDescriptor>:
 8003df0:	2304      	movs	r3, #4
 8003df2:	4801      	ldr	r0, [pc, #4]	; (8003df8 <USBD_FS_LangIDStrDescriptor+0x8>)
 8003df4:	800b      	strh	r3, [r1, #0]
 8003df6:	4770      	bx	lr
 8003df8:	20000180 	.word	0x20000180

08003dfc <USBD_FS_ManufacturerStrDescriptor>:
 8003dfc:	b510      	push	{r4, lr}
 8003dfe:	4c04      	ldr	r4, [pc, #16]	; (8003e10 <USBD_FS_ManufacturerStrDescriptor+0x14>)
 8003e00:	460a      	mov	r2, r1
 8003e02:	4804      	ldr	r0, [pc, #16]	; (8003e14 <USBD_FS_ManufacturerStrDescriptor+0x18>)
 8003e04:	4621      	mov	r1, r4
 8003e06:	f7ff f84b 	bl	8002ea0 <USBD_GetString>
 8003e0a:	4620      	mov	r0, r4
 8003e0c:	bd10      	pop	{r4, pc}
 8003e0e:	bf00      	nop
 8003e10:	20000c94 	.word	0x20000c94
 8003e14:	080040d0 	.word	0x080040d0

08003e18 <USBD_FS_ProductStrDescriptor>:
 8003e18:	b510      	push	{r4, lr}
 8003e1a:	4c04      	ldr	r4, [pc, #16]	; (8003e2c <USBD_FS_ProductStrDescriptor+0x14>)
 8003e1c:	460a      	mov	r2, r1
 8003e1e:	4804      	ldr	r0, [pc, #16]	; (8003e30 <USBD_FS_ProductStrDescriptor+0x18>)
 8003e20:	4621      	mov	r1, r4
 8003e22:	f7ff f83d 	bl	8002ea0 <USBD_GetString>
 8003e26:	4620      	mov	r0, r4
 8003e28:	bd10      	pop	{r4, pc}
 8003e2a:	bf00      	nop
 8003e2c:	20000c94 	.word	0x20000c94
 8003e30:	080040e4 	.word	0x080040e4

08003e34 <USBD_FS_ConfigStrDescriptor>:
 8003e34:	b510      	push	{r4, lr}
 8003e36:	4c04      	ldr	r4, [pc, #16]	; (8003e48 <USBD_FS_ConfigStrDescriptor+0x14>)
 8003e38:	460a      	mov	r2, r1
 8003e3a:	4804      	ldr	r0, [pc, #16]	; (8003e4c <USBD_FS_ConfigStrDescriptor+0x18>)
 8003e3c:	4621      	mov	r1, r4
 8003e3e:	f7ff f82f 	bl	8002ea0 <USBD_GetString>
 8003e42:	4620      	mov	r0, r4
 8003e44:	bd10      	pop	{r4, pc}
 8003e46:	bf00      	nop
 8003e48:	20000c94 	.word	0x20000c94
 8003e4c:	080040a4 	.word	0x080040a4

08003e50 <USBD_FS_InterfaceStrDescriptor>:
 8003e50:	b510      	push	{r4, lr}
 8003e52:	4c04      	ldr	r4, [pc, #16]	; (8003e64 <USBD_FS_InterfaceStrDescriptor+0x14>)
 8003e54:	460a      	mov	r2, r1
 8003e56:	4804      	ldr	r0, [pc, #16]	; (8003e68 <USBD_FS_InterfaceStrDescriptor+0x18>)
 8003e58:	4621      	mov	r1, r4
 8003e5a:	f7ff f821 	bl	8002ea0 <USBD_GetString>
 8003e5e:	4620      	mov	r0, r4
 8003e60:	bd10      	pop	{r4, pc}
 8003e62:	bf00      	nop
 8003e64:	20000c94 	.word	0x20000c94
 8003e68:	080040b8 	.word	0x080040b8

08003e6c <USBD_FS_SerialStrDescriptor>:
 8003e6c:	201a      	movs	r0, #26
 8003e6e:	4a44      	ldr	r2, [pc, #272]	; (8003f80 <USBD_FS_SerialStrDescriptor+0x114>)
 8003e70:	4b44      	ldr	r3, [pc, #272]	; (8003f84 <USBD_FS_SerialStrDescriptor+0x118>)
 8003e72:	6812      	ldr	r2, [r2, #0]
 8003e74:	681b      	ldr	r3, [r3, #0]
 8003e76:	8008      	strh	r0, [r1, #0]
 8003e78:	18d2      	adds	r2, r2, r3
 8003e7a:	d101      	bne.n	8003e80 <USBD_FS_SerialStrDescriptor+0x14>
 8003e7c:	4842      	ldr	r0, [pc, #264]	; (8003f88 <USBD_FS_SerialStrDescriptor+0x11c>)
 8003e7e:	4770      	bx	lr
 8003e80:	b410      	push	{r4}
 8003e82:	2400      	movs	r4, #0
 8003e84:	0f13      	lsrs	r3, r2, #28
 8003e86:	b2d8      	uxtb	r0, r3
 8003e88:	2b09      	cmp	r3, #9
 8003e8a:	4940      	ldr	r1, [pc, #256]	; (8003f8c <USBD_FS_SerialStrDescriptor+0x120>)
 8003e8c:	4b3e      	ldr	r3, [pc, #248]	; (8003f88 <USBD_FS_SerialStrDescriptor+0x11c>)
 8003e8e:	bf94      	ite	ls
 8003e90:	3030      	addls	r0, #48	; 0x30
 8003e92:	3037      	addhi	r0, #55	; 0x37
 8003e94:	6809      	ldr	r1, [r1, #0]
 8003e96:	7098      	strb	r0, [r3, #2]
 8003e98:	f3c2 6003 	ubfx	r0, r2, #24, #4
 8003e9c:	2809      	cmp	r0, #9
 8003e9e:	70dc      	strb	r4, [r3, #3]
 8003ea0:	b2c4      	uxtb	r4, r0
 8003ea2:	bf94      	ite	ls
 8003ea4:	3430      	addls	r4, #48	; 0x30
 8003ea6:	3437      	addhi	r4, #55	; 0x37
 8003ea8:	711c      	strb	r4, [r3, #4]
 8003eaa:	2400      	movs	r4, #0
 8003eac:	f3c2 5003 	ubfx	r0, r2, #20, #4
 8003eb0:	2809      	cmp	r0, #9
 8003eb2:	715c      	strb	r4, [r3, #5]
 8003eb4:	b2c4      	uxtb	r4, r0
 8003eb6:	bf94      	ite	ls
 8003eb8:	3430      	addls	r4, #48	; 0x30
 8003eba:	3437      	addhi	r4, #55	; 0x37
 8003ebc:	719c      	strb	r4, [r3, #6]
 8003ebe:	2400      	movs	r4, #0
 8003ec0:	f3c2 4003 	ubfx	r0, r2, #16, #4
 8003ec4:	2809      	cmp	r0, #9
 8003ec6:	71dc      	strb	r4, [r3, #7]
 8003ec8:	b2c4      	uxtb	r4, r0
 8003eca:	bf94      	ite	ls
 8003ecc:	3430      	addls	r4, #48	; 0x30
 8003ece:	3437      	addhi	r4, #55	; 0x37
 8003ed0:	721c      	strb	r4, [r3, #8]
 8003ed2:	2400      	movs	r4, #0
 8003ed4:	f3c2 3003 	ubfx	r0, r2, #12, #4
 8003ed8:	2809      	cmp	r0, #9
 8003eda:	725c      	strb	r4, [r3, #9]
 8003edc:	b2c4      	uxtb	r4, r0
 8003ede:	bf94      	ite	ls
 8003ee0:	3430      	addls	r4, #48	; 0x30
 8003ee2:	3437      	addhi	r4, #55	; 0x37
 8003ee4:	729c      	strb	r4, [r3, #10]
 8003ee6:	2400      	movs	r4, #0
 8003ee8:	f3c2 2003 	ubfx	r0, r2, #8, #4
 8003eec:	2809      	cmp	r0, #9
 8003eee:	72dc      	strb	r4, [r3, #11]
 8003ef0:	b2c4      	uxtb	r4, r0
 8003ef2:	bf94      	ite	ls
 8003ef4:	3430      	addls	r4, #48	; 0x30
 8003ef6:	3437      	addhi	r4, #55	; 0x37
 8003ef8:	731c      	strb	r4, [r3, #12]
 8003efa:	2400      	movs	r4, #0
 8003efc:	f3c2 1003 	ubfx	r0, r2, #4, #4
 8003f00:	2809      	cmp	r0, #9
 8003f02:	f002 020f 	and.w	r2, r2, #15
 8003f06:	735c      	strb	r4, [r3, #13]
 8003f08:	b2c4      	uxtb	r4, r0
 8003f0a:	bf98      	it	ls
 8003f0c:	3430      	addls	r4, #48	; 0x30
 8003f0e:	b2d0      	uxtb	r0, r2
 8003f10:	bf88      	it	hi
 8003f12:	3437      	addhi	r4, #55	; 0x37
 8003f14:	2a09      	cmp	r2, #9
 8003f16:	bf94      	ite	ls
 8003f18:	3030      	addls	r0, #48	; 0x30
 8003f1a:	3037      	addhi	r0, #55	; 0x37
 8003f1c:	7418      	strb	r0, [r3, #16]
 8003f1e:	2000      	movs	r0, #0
 8003f20:	0f0a      	lsrs	r2, r1, #28
 8003f22:	2a09      	cmp	r2, #9
 8003f24:	7458      	strb	r0, [r3, #17]
 8003f26:	b2d0      	uxtb	r0, r2
 8003f28:	bf94      	ite	ls
 8003f2a:	3030      	addls	r0, #48	; 0x30
 8003f2c:	3037      	addhi	r0, #55	; 0x37
 8003f2e:	7498      	strb	r0, [r3, #18]
 8003f30:	2000      	movs	r0, #0
 8003f32:	f3c1 6203 	ubfx	r2, r1, #24, #4
 8003f36:	2a09      	cmp	r2, #9
 8003f38:	74d8      	strb	r0, [r3, #19]
 8003f3a:	b2d0      	uxtb	r0, r2
 8003f3c:	bf94      	ite	ls
 8003f3e:	3030      	addls	r0, #48	; 0x30
 8003f40:	3037      	addhi	r0, #55	; 0x37
 8003f42:	7518      	strb	r0, [r3, #20]
 8003f44:	2000      	movs	r0, #0
 8003f46:	f3c1 5203 	ubfx	r2, r1, #20, #4
 8003f4a:	2a09      	cmp	r2, #9
 8003f4c:	7558      	strb	r0, [r3, #21]
 8003f4e:	f3c1 4103 	ubfx	r1, r1, #16, #4
 8003f52:	b2d0      	uxtb	r0, r2
 8003f54:	bf98      	it	ls
 8003f56:	3030      	addls	r0, #48	; 0x30
 8003f58:	b2ca      	uxtb	r2, r1
 8003f5a:	bf88      	it	hi
 8003f5c:	3037      	addhi	r0, #55	; 0x37
 8003f5e:	2909      	cmp	r1, #9
 8003f60:	bf94      	ite	ls
 8003f62:	3230      	addls	r2, #48	; 0x30
 8003f64:	3237      	addhi	r2, #55	; 0x37
 8003f66:	739c      	strb	r4, [r3, #14]
 8003f68:	7598      	strb	r0, [r3, #22]
 8003f6a:	2400      	movs	r4, #0
 8003f6c:	2000      	movs	r0, #0
 8003f6e:	761a      	strb	r2, [r3, #24]
 8003f70:	2200      	movs	r2, #0
 8003f72:	75d8      	strb	r0, [r3, #23]
 8003f74:	73dc      	strb	r4, [r3, #15]
 8003f76:	765a      	strb	r2, [r3, #25]
 8003f78:	4803      	ldr	r0, [pc, #12]	; (8003f88 <USBD_FS_SerialStrDescriptor+0x11c>)
 8003f7a:	bc10      	pop	{r4}
 8003f7c:	4770      	bx	lr
 8003f7e:	bf00      	nop
 8003f80:	1ffff7e8 	.word	0x1ffff7e8
 8003f84:	1ffff7f0 	.word	0x1ffff7f0
 8003f88:	20000184 	.word	0x20000184
 8003f8c:	1ffff7ec 	.word	0x1ffff7ec

08003f90 <Reset_Handler>:
 8003f90:	2100      	movs	r1, #0
 8003f92:	e003      	b.n	8003f9c <LoopCopyDataInit>

08003f94 <CopyDataInit>:
 8003f94:	4b0b      	ldr	r3, [pc, #44]	; (8003fc4 <LoopFillZerobss+0x14>)
 8003f96:	585b      	ldr	r3, [r3, r1]
 8003f98:	5043      	str	r3, [r0, r1]
 8003f9a:	3104      	adds	r1, #4

08003f9c <LoopCopyDataInit>:
 8003f9c:	480a      	ldr	r0, [pc, #40]	; (8003fc8 <LoopFillZerobss+0x18>)
 8003f9e:	4b0b      	ldr	r3, [pc, #44]	; (8003fcc <LoopFillZerobss+0x1c>)
 8003fa0:	1842      	adds	r2, r0, r1
 8003fa2:	429a      	cmp	r2, r3
 8003fa4:	d3f6      	bcc.n	8003f94 <CopyDataInit>
 8003fa6:	4a0a      	ldr	r2, [pc, #40]	; (8003fd0 <LoopFillZerobss+0x20>)
 8003fa8:	e002      	b.n	8003fb0 <LoopFillZerobss>

08003faa <FillZerobss>:
 8003faa:	2300      	movs	r3, #0
 8003fac:	f842 3b04 	str.w	r3, [r2], #4

08003fb0 <LoopFillZerobss>:
 8003fb0:	4b08      	ldr	r3, [pc, #32]	; (8003fd4 <LoopFillZerobss+0x24>)
 8003fb2:	429a      	cmp	r2, r3
 8003fb4:	d3f9      	bcc.n	8003faa <FillZerobss>
 8003fb6:	f7ff fd4d 	bl	8003a54 <SystemInit>
 8003fba:	f000 f80f 	bl	8003fdc <__libc_init_array>
 8003fbe:	f7ff f8ef 	bl	80031a0 <main>
 8003fc2:	4770      	bx	lr
 8003fc4:	08004104 	.word	0x08004104
 8003fc8:	20000000 	.word	0x20000000
 8003fcc:	200001a0 	.word	0x200001a0
 8003fd0:	200001a0 	.word	0x200001a0
 8003fd4:	20000e94 	.word	0x20000e94

08003fd8 <ADC1_2_IRQHandler>:
 8003fd8:	e7fe      	b.n	8003fd8 <ADC1_2_IRQHandler>
	...

08003fdc <__libc_init_array>:
 8003fdc:	b570      	push	{r4, r5, r6, lr}
 8003fde:	2500      	movs	r5, #0
 8003fe0:	4e0c      	ldr	r6, [pc, #48]	; (8004014 <__libc_init_array+0x38>)
 8003fe2:	4c0d      	ldr	r4, [pc, #52]	; (8004018 <__libc_init_array+0x3c>)
 8003fe4:	1ba4      	subs	r4, r4, r6
 8003fe6:	10a4      	asrs	r4, r4, #2
 8003fe8:	42a5      	cmp	r5, r4
 8003fea:	d109      	bne.n	8004000 <__libc_init_array+0x24>
 8003fec:	f000 f83c 	bl	8004068 <_init>
 8003ff0:	2500      	movs	r5, #0
 8003ff2:	4e0a      	ldr	r6, [pc, #40]	; (800401c <__libc_init_array+0x40>)
 8003ff4:	4c0a      	ldr	r4, [pc, #40]	; (8004020 <__libc_init_array+0x44>)
 8003ff6:	1ba4      	subs	r4, r4, r6
 8003ff8:	10a4      	asrs	r4, r4, #2
 8003ffa:	42a5      	cmp	r5, r4
 8003ffc:	d105      	bne.n	800400a <__libc_init_array+0x2e>
 8003ffe:	bd70      	pop	{r4, r5, r6, pc}
 8004000:	f856 3025 	ldr.w	r3, [r6, r5, lsl #2]
 8004004:	4798      	blx	r3
 8004006:	3501      	adds	r5, #1
 8004008:	e7ee      	b.n	8003fe8 <__libc_init_array+0xc>
 800400a:	f856 3025 	ldr.w	r3, [r6, r5, lsl #2]
 800400e:	4798      	blx	r3
 8004010:	3501      	adds	r5, #1
 8004012:	e7f2      	b.n	8003ffa <__libc_init_array+0x1e>
 8004014:	080040fc 	.word	0x080040fc
 8004018:	080040fc 	.word	0x080040fc
 800401c:	080040fc 	.word	0x080040fc
 8004020:	08004100 	.word	0x08004100

08004024 <memmove>:
 8004024:	4288      	cmp	r0, r1
 8004026:	b510      	push	{r4, lr}
 8004028:	eb01 0302 	add.w	r3, r1, r2
 800402c:	d807      	bhi.n	800403e <memmove+0x1a>
 800402e:	1e42      	subs	r2, r0, #1
 8004030:	4299      	cmp	r1, r3
 8004032:	d00a      	beq.n	800404a <memmove+0x26>
 8004034:	f811 4b01 	ldrb.w	r4, [r1], #1
 8004038:	f802 4f01 	strb.w	r4, [r2, #1]!
 800403c:	e7f8      	b.n	8004030 <memmove+0xc>
 800403e:	4283      	cmp	r3, r0
 8004040:	d9f5      	bls.n	800402e <memmove+0xa>
 8004042:	1881      	adds	r1, r0, r2
 8004044:	1ad2      	subs	r2, r2, r3
 8004046:	42d3      	cmn	r3, r2
 8004048:	d100      	bne.n	800404c <memmove+0x28>
 800404a:	bd10      	pop	{r4, pc}
 800404c:	f813 4d01 	ldrb.w	r4, [r3, #-1]!
 8004050:	f801 4d01 	strb.w	r4, [r1, #-1]!
 8004054:	e7f7      	b.n	8004046 <memmove+0x22>

08004056 <memset>:
 8004056:	4603      	mov	r3, r0
 8004058:	4402      	add	r2, r0
 800405a:	4293      	cmp	r3, r2
 800405c:	d100      	bne.n	8004060 <memset+0xa>
 800405e:	4770      	bx	lr
 8004060:	f803 1b01 	strb.w	r1, [r3], #1
 8004064:	e7f9      	b.n	800405a <memset+0x4>
	...

08004068 <_init>:
 8004068:	b5f8      	push	{r3, r4, r5, r6, r7, lr}
 800406a:	bf00      	nop
 800406c:	bcf8      	pop	{r3, r4, r5, r6, r7}
 800406e:	bc08      	pop	{r3}
 8004070:	469e      	mov	lr, r3
 8004072:	4770      	bx	lr

08004074 <_fini>:
 8004074:	b5f8      	push	{r3, r4, r5, r6, r7, lr}
 8004076:	bf00      	nop
 8004078:	bcf8      	pop	{r3, r4, r5, r6, r7}
 800407a:	bc08      	pop	{r3}
 800407c:	469e      	mov	lr, r3
 800407e:	4770      	bx	lr
